Component: ARM Compiler 5.06 update 4 (build 422) Tool: armlink [4d35d2]

==============================================================================

Section Cross References

    startup_stm32l476xx.o(RESET) refers to startup_stm32l476xx.o(STACK) for __initial_sp
    startup_stm32l476xx.o(RESET) refers to startup_stm32l476xx.o(.text) for Reset_Handler
    startup_stm32l476xx.o(RESET) refers to smtc_hal_mcu_gpio_stm32l4.o(i.EXTI0_IRQHandler) for EXTI0_IRQHandler
    startup_stm32l476xx.o(RESET) refers to smtc_hal_mcu_gpio_stm32l4.o(i.EXTI1_IRQHandler) for EXTI1_IRQHandler
    startup_stm32l476xx.o(RESET) refers to smtc_hal_mcu_gpio_stm32l4.o(i.EXTI2_IRQHandler) for EXTI2_IRQHandler
    startup_stm32l476xx.o(RESET) refers to smtc_hal_mcu_gpio_stm32l4.o(i.EXTI3_IRQHandler) for EXTI3_IRQHandler
    startup_stm32l476xx.o(RESET) refers to smtc_hal_mcu_gpio_stm32l4.o(i.EXTI4_IRQHandler) for EXTI4_IRQHandler
    startup_stm32l476xx.o(RESET) refers to smtc_hal_mcu_gpio_stm32l4.o(i.EXTI9_5_IRQHandler) for EXTI9_5_IRQHandler
    startup_stm32l476xx.o(RESET) refers to smtc_hal_mcu_uart_stm32l4.o(i.USART2_IRQHandler) for USART2_IRQHandler
    startup_stm32l476xx.o(RESET) refers to smtc_hal_mcu_gpio_stm32l4.o(i.EXTI15_10_IRQHandler) for EXTI15_10_IRQHandler
    startup_stm32l476xx.o(RESET) refers to smtc_hal_mcu_timer_stm32l4.o(i.LPTIM1_IRQHandler) for LPTIM1_IRQHandler
    startup_stm32l476xx.o(.text) refers to system_stm32l4xx.o(i.SystemInit) for SystemInit
    startup_stm32l476xx.o(.text) refers to entry.o(.ARM.Collect$$$$00000000) for __main
    apps_common.o(i.apps_common_lr11xx_fetch_and_print_version) refers to apps_common.o(i.apps_common_lr11xx_fetch_version) for apps_common_lr11xx_fetch_version
    apps_common.o(i.apps_common_lr11xx_fetch_and_print_version) refers to apps_common.o(i.apps_common_lr11xx_print_version) for apps_common_lr11xx_print_version
    apps_common.o(i.apps_common_lr11xx_fetch_version) refers to lr11xx_system.o(i.lr11xx_system_get_version) for lr11xx_system_get_version
    apps_common.o(i.apps_common_lr11xx_fetch_version) refers to smtc_hal_dbg_trace.o(i.hal_mcu_trace_print) for hal_mcu_trace_print
    apps_common.o(i.apps_common_lr11xx_fetch_version) refers to apps_common.o(.constdata) for __func__
    apps_common.o(i.apps_common_lr11xx_get_context) refers to smtc_shield_pinout_mapping.o(i.smtc_shield_pinout_mapping_get_gpio_cfg) for smtc_shield_pinout_mapping_get_gpio_cfg
    apps_common.o(i.apps_common_lr11xx_get_context) refers to smtc_hal_mcu_gpio_stm32l4.o(i.smtc_hal_mcu_gpio_init_input) for smtc_hal_mcu_gpio_init_input
    apps_common.o(i.apps_common_lr11xx_get_context) refers to smtc_hal_mcu_gpio_stm32l4.o(i.smtc_hal_mcu_gpio_init_output) for smtc_hal_mcu_gpio_init_output
    apps_common.o(i.apps_common_lr11xx_get_context) refers to smtc_hal_mcu_gpio_stm32l4.o(i.smtc_hal_mcu_gpio_enable_irq) for smtc_hal_mcu_gpio_enable_irq
    apps_common.o(i.apps_common_lr11xx_get_context) refers to smtc_hal_mcu_spi_stm32l4.o(i.smtc_hal_mcu_spi_init) for smtc_hal_mcu_spi_init
    apps_common.o(i.apps_common_lr11xx_get_context) refers to apps_common.o(.bss) for context
    apps_common.o(i.apps_common_lr11xx_get_context) refers to apps_common.o(i.radio_on_dio_irq) for radio_on_dio_irq
    apps_common.o(i.apps_common_lr11xx_handle_post_gnss_scan) refers to smtc_hal_mcu_gpio_stm32l4.o(i.smtc_hal_mcu_gpio_set_state) for smtc_hal_mcu_gpio_set_state
    apps_common.o(i.apps_common_lr11xx_handle_post_gnss_scan) refers to apps_common.o(.data) for shield_pinout
    apps_common.o(i.apps_common_lr11xx_handle_post_gnss_scan) refers to apps_common.o(.bss) for led_scan
    apps_common.o(i.apps_common_lr11xx_handle_post_rx) refers to smtc_hal_mcu_gpio_stm32l4.o(i.smtc_hal_mcu_gpio_set_state) for smtc_hal_mcu_gpio_set_state
    apps_common.o(i.apps_common_lr11xx_handle_post_rx) refers to apps_common.o(.data) for shield_pinout
    apps_common.o(i.apps_common_lr11xx_handle_post_rx) refers to apps_common.o(.bss) for led_rx
    apps_common.o(i.apps_common_lr11xx_handle_post_tx) refers to smtc_hal_mcu_gpio_stm32l4.o(i.smtc_hal_mcu_gpio_set_state) for smtc_hal_mcu_gpio_set_state
    apps_common.o(i.apps_common_lr11xx_handle_post_tx) refers to apps_common.o(.data) for shield_pinout
    apps_common.o(i.apps_common_lr11xx_handle_post_tx) refers to apps_common.o(.bss) for led_tx
    apps_common.o(i.apps_common_lr11xx_handle_post_wifi_scan) refers to smtc_hal_mcu_gpio_stm32l4.o(i.smtc_hal_mcu_gpio_set_state) for smtc_hal_mcu_gpio_set_state
    apps_common.o(i.apps_common_lr11xx_handle_post_wifi_scan) refers to apps_common.o(.data) for shield_pinout
    apps_common.o(i.apps_common_lr11xx_handle_post_wifi_scan) refers to apps_common.o(.bss) for led_scan
    apps_common.o(i.apps_common_lr11xx_handle_pre_gnss_scan) refers to smtc_hal_mcu_gpio_stm32l4.o(i.smtc_hal_mcu_gpio_set_state) for smtc_hal_mcu_gpio_set_state
    apps_common.o(i.apps_common_lr11xx_handle_pre_gnss_scan) refers to apps_common.o(.data) for shield_pinout
    apps_common.o(i.apps_common_lr11xx_handle_pre_gnss_scan) refers to apps_common.o(.bss) for led_scan
    apps_common.o(i.apps_common_lr11xx_handle_pre_rx) refers to smtc_hal_mcu_gpio_stm32l4.o(i.smtc_hal_mcu_gpio_set_state) for smtc_hal_mcu_gpio_set_state
    apps_common.o(i.apps_common_lr11xx_handle_pre_rx) refers to apps_common.o(.data) for shield_pinout
    apps_common.o(i.apps_common_lr11xx_handle_pre_rx) refers to apps_common.o(.bss) for led_rx
    apps_common.o(i.apps_common_lr11xx_handle_pre_tx) refers to smtc_hal_mcu_gpio_stm32l4.o(i.smtc_hal_mcu_gpio_set_state) for smtc_hal_mcu_gpio_set_state
    apps_common.o(i.apps_common_lr11xx_handle_pre_tx) refers to apps_common.o(.data) for shield_pinout
    apps_common.o(i.apps_common_lr11xx_handle_pre_tx) refers to apps_common.o(.bss) for led_tx
    apps_common.o(i.apps_common_lr11xx_handle_pre_wifi_scan) refers to smtc_hal_mcu_gpio_stm32l4.o(i.smtc_hal_mcu_gpio_set_state) for smtc_hal_mcu_gpio_set_state
    apps_common.o(i.apps_common_lr11xx_handle_pre_wifi_scan) refers to apps_common.o(.data) for shield_pinout
    apps_common.o(i.apps_common_lr11xx_handle_pre_wifi_scan) refers to apps_common.o(.bss) for led_scan
    apps_common.o(i.apps_common_lr11xx_irq_process) refers to lr11xx_system.o(i.lr11xx_system_get_and_clear_irq_status) for lr11xx_system_get_and_clear_irq_status
    apps_common.o(i.apps_common_lr11xx_irq_process) refers to smtc_hal_dbg_trace.o(i.hal_mcu_trace_print) for hal_mcu_trace_print
    apps_common.o(i.apps_common_lr11xx_irq_process) refers to main_per.o(i.on_tx_done) for on_tx_done
    apps_common.o(i.apps_common_lr11xx_irq_process) refers to apps_common.o(i.on_preamble_detected) for on_preamble_detected
    apps_common.o(i.apps_common_lr11xx_irq_process) refers to apps_common.o(i.on_header_error) for on_header_error
    apps_common.o(i.apps_common_lr11xx_irq_process) refers to apps_common.o(i.on_syncword_header_valid) for on_syncword_header_valid
    apps_common.o(i.apps_common_lr11xx_irq_process) refers to main_per.o(i.on_rx_crc_error) for on_rx_crc_error
    apps_common.o(i.apps_common_lr11xx_irq_process) refers to main_per.o(i.on_fsk_len_error) for on_fsk_len_error
    apps_common.o(i.apps_common_lr11xx_irq_process) refers to main_per.o(i.on_rx_done) for on_rx_done
    apps_common.o(i.apps_common_lr11xx_irq_process) refers to apps_common.o(i.on_cad_done_detected) for on_cad_done_detected
    apps_common.o(i.apps_common_lr11xx_irq_process) refers to apps_common.o(i.on_cad_done_undetected) for on_cad_done_undetected
    apps_common.o(i.apps_common_lr11xx_irq_process) refers to main_per.o(i.on_rx_timeout) for on_rx_timeout
    apps_common.o(i.apps_common_lr11xx_irq_process) refers to apps_common.o(i.on_lora_rx_timestamp) for on_lora_rx_timestamp
    apps_common.o(i.apps_common_lr11xx_irq_process) refers to apps_common.o(i.on_rttof_request_valid) for on_rttof_request_valid
    apps_common.o(i.apps_common_lr11xx_irq_process) refers to apps_common.o(i.on_rttof_request_discarded) for on_rttof_request_discarded
    apps_common.o(i.apps_common_lr11xx_irq_process) refers to apps_common.o(i.on_rttof_response_done) for on_rttof_response_done
    apps_common.o(i.apps_common_lr11xx_irq_process) refers to apps_common.o(i.on_rttof_exchange_valid) for on_rttof_exchange_valid
    apps_common.o(i.apps_common_lr11xx_irq_process) refers to apps_common.o(i.on_rttof_timeout) for on_rttof_timeout
    apps_common.o(i.apps_common_lr11xx_irq_process) refers to apps_common.o(i.on_wifi_scan_done) for on_wifi_scan_done
    apps_common.o(i.apps_common_lr11xx_irq_process) refers to apps_common.o(i.on_gnss_scan_done) for on_gnss_scan_done
    apps_common.o(i.apps_common_lr11xx_irq_process) refers to apps_common.o(.data) for irq_fired
    apps_common.o(i.apps_common_lr11xx_print_version) refers to smtc_hal_dbg_trace.o(i.hal_mcu_trace_print) for hal_mcu_trace_print
    apps_common.o(i.apps_common_lr11xx_print_version) refers to apps_common.o(.conststring) for .conststring
    apps_common.o(i.apps_common_lr11xx_radio_dbpsk_init) refers to apps_common.o(i.smtc_shield_lr11xx_get_pa_pwr_cfg) for smtc_shield_lr11xx_get_pa_pwr_cfg
    apps_common.o(i.apps_common_lr11xx_radio_dbpsk_init) refers to smtc_hal_dbg_trace.o(i.hal_mcu_trace_print) for hal_mcu_trace_print
    apps_common.o(i.apps_common_lr11xx_radio_dbpsk_init) refers to lr11xx_radio_types_str.o(i.lr11xx_radio_pkt_type_to_str) for lr11xx_radio_pkt_type_to_str
    apps_common.o(i.apps_common_lr11xx_radio_dbpsk_init) refers to lr11xx_radio.o(i.lr11xx_radio_set_pkt_type) for lr11xx_radio_set_pkt_type
    apps_common.o(i.apps_common_lr11xx_radio_dbpsk_init) refers to lr11xx_radio.o(i.lr11xx_radio_set_rf_freq) for lr11xx_radio_set_rf_freq
    apps_common.o(i.apps_common_lr11xx_radio_dbpsk_init) refers to apps_common.o(i.smtc_shield_lr11xx_get_rssi_calibration_table) for smtc_shield_lr11xx_get_rssi_calibration_table
    apps_common.o(i.apps_common_lr11xx_radio_dbpsk_init) refers to lr11xx_radio.o(i.lr11xx_radio_set_rssi_calibration) for lr11xx_radio_set_rssi_calibration
    apps_common.o(i.apps_common_lr11xx_radio_dbpsk_init) refers to lr11xx_radio.o(i.lr11xx_radio_set_pa_cfg) for lr11xx_radio_set_pa_cfg
    apps_common.o(i.apps_common_lr11xx_radio_dbpsk_init) refers to lr11xx_radio.o(i.lr11xx_radio_set_bpsk_mod_params) for lr11xx_radio_set_bpsk_mod_params
    apps_common.o(i.apps_common_lr11xx_radio_dbpsk_init) refers to lr11xx_radio.o(i.lr11xx_radio_set_bpsk_pkt_params) for lr11xx_radio_set_bpsk_pkt_params
    apps_common.o(i.apps_common_lr11xx_radio_dbpsk_init) refers to apps_common.o(.data) for shield
    apps_common.o(i.apps_common_lr11xx_radio_dbpsk_init) refers to apps_common.o(.constdata) for __func__
    apps_common.o(i.apps_common_lr11xx_radio_init) refers to apps_common.o(i.smtc_shield_lr11xx_get_pa_pwr_cfg) for smtc_shield_lr11xx_get_pa_pwr_cfg
    apps_common.o(i.apps_common_lr11xx_radio_init) refers to smtc_hal_dbg_trace.o(i.hal_mcu_trace_print) for hal_mcu_trace_print
    apps_common.o(i.apps_common_lr11xx_radio_init) refers to apps_common.o(i.print_common_configuration) for print_common_configuration
    apps_common.o(i.apps_common_lr11xx_radio_init) refers to lr11xx_radio.o(i.lr11xx_radio_set_pkt_type) for lr11xx_radio_set_pkt_type
    apps_common.o(i.apps_common_lr11xx_radio_init) refers to lr11xx_radio.o(i.lr11xx_radio_set_rf_freq) for lr11xx_radio_set_rf_freq
    apps_common.o(i.apps_common_lr11xx_radio_init) refers to apps_common.o(i.smtc_shield_lr11xx_get_rssi_calibration_table) for smtc_shield_lr11xx_get_rssi_calibration_table
    apps_common.o(i.apps_common_lr11xx_radio_init) refers to lr11xx_radio.o(i.lr11xx_radio_set_rssi_calibration) for lr11xx_radio_set_rssi_calibration
    apps_common.o(i.apps_common_lr11xx_radio_init) refers to lr11xx_radio.o(i.lr11xx_radio_set_pa_cfg) for lr11xx_radio_set_pa_cfg
    apps_common.o(i.apps_common_lr11xx_radio_init) refers to lr11xx_radio.o(i.lr11xx_radio_set_tx_params) for lr11xx_radio_set_tx_params
    apps_common.o(i.apps_common_lr11xx_radio_init) refers to lr11xx_radio.o(i.lr11xx_radio_set_rx_tx_fallback_mode) for lr11xx_radio_set_rx_tx_fallback_mode
    apps_common.o(i.apps_common_lr11xx_radio_init) refers to lr11xx_radio.o(i.lr11xx_radio_cfg_rx_boosted) for lr11xx_radio_cfg_rx_boosted
    apps_common.o(i.apps_common_lr11xx_radio_init) refers to apps_common.o(i.print_lora_configuration) for print_lora_configuration
    apps_common.o(i.apps_common_lr11xx_radio_init) refers to apps_common.o(i.apps_common_compute_lora_ldro) for apps_common_compute_lora_ldro
    apps_common.o(i.apps_common_lr11xx_radio_init) refers to lr11xx_radio.o(i.lr11xx_radio_set_lora_mod_params) for lr11xx_radio_set_lora_mod_params
    apps_common.o(i.apps_common_lr11xx_radio_init) refers to lr11xx_radio.o(i.lr11xx_radio_set_lora_pkt_params) for lr11xx_radio_set_lora_pkt_params
    apps_common.o(i.apps_common_lr11xx_radio_init) refers to lr11xx_radio.o(i.lr11xx_radio_set_lora_sync_word) for lr11xx_radio_set_lora_sync_word
    apps_common.o(i.apps_common_lr11xx_radio_init) refers to apps_common.o(.data) for shield
    apps_common.o(i.apps_common_lr11xx_radio_init) refers to apps_common.o(.constdata) for __func__
    apps_common.o(i.apps_common_lr11xx_radio_rttof_init) refers to apps_common.o(i.smtc_shield_lr11xx_get_pa_pwr_cfg) for smtc_shield_lr11xx_get_pa_pwr_cfg
    apps_common.o(i.apps_common_lr11xx_radio_rttof_init) refers to smtc_hal_dbg_trace.o(i.hal_mcu_trace_print) for hal_mcu_trace_print
    apps_common.o(i.apps_common_lr11xx_radio_rttof_init) refers to apps_common.o(i.print_common_configuration) for print_common_configuration
    apps_common.o(i.apps_common_lr11xx_radio_rttof_init) refers to lr11xx_radio.o(i.lr11xx_radio_set_pkt_type) for lr11xx_radio_set_pkt_type
    apps_common.o(i.apps_common_lr11xx_radio_rttof_init) refers to lr11xx_radio.o(i.lr11xx_radio_set_rf_freq) for lr11xx_radio_set_rf_freq
    apps_common.o(i.apps_common_lr11xx_radio_rttof_init) refers to apps_common.o(i.smtc_shield_lr11xx_get_rssi_calibration_table) for smtc_shield_lr11xx_get_rssi_calibration_table
    apps_common.o(i.apps_common_lr11xx_radio_rttof_init) refers to lr11xx_radio.o(i.lr11xx_radio_set_rssi_calibration) for lr11xx_radio_set_rssi_calibration
    apps_common.o(i.apps_common_lr11xx_radio_rttof_init) refers to lr11xx_radio.o(i.lr11xx_radio_set_pa_cfg) for lr11xx_radio_set_pa_cfg
    apps_common.o(i.apps_common_lr11xx_radio_rttof_init) refers to lr11xx_radio.o(i.lr11xx_radio_set_tx_params) for lr11xx_radio_set_tx_params
    apps_common.o(i.apps_common_lr11xx_radio_rttof_init) refers to lr11xx_radio.o(i.lr11xx_radio_set_rx_tx_fallback_mode) for lr11xx_radio_set_rx_tx_fallback_mode
    apps_common.o(i.apps_common_lr11xx_radio_rttof_init) refers to lr11xx_radio.o(i.lr11xx_radio_cfg_rx_boosted) for lr11xx_radio_cfg_rx_boosted
    apps_common.o(i.apps_common_lr11xx_radio_rttof_init) refers to apps_common.o(i.print_lora_configuration) for print_lora_configuration
    apps_common.o(i.apps_common_lr11xx_radio_rttof_init) refers to apps_common.o(i.apps_common_compute_lora_ldro) for apps_common_compute_lora_ldro
    apps_common.o(i.apps_common_lr11xx_radio_rttof_init) refers to lr11xx_radio.o(i.lr11xx_radio_set_lora_mod_params) for lr11xx_radio_set_lora_mod_params
    apps_common.o(i.apps_common_lr11xx_radio_rttof_init) refers to lr11xx_radio.o(i.lr11xx_radio_set_lora_pkt_params) for lr11xx_radio_set_lora_pkt_params
    apps_common.o(i.apps_common_lr11xx_radio_rttof_init) refers to lr11xx_radio.o(i.lr11xx_radio_set_lora_sync_word) for lr11xx_radio_set_lora_sync_word
    apps_common.o(i.apps_common_lr11xx_radio_rttof_init) refers to lr11xx_rttof.o(i.lr11xx_rttof_set_rx_tx_delay_indicator) for lr11xx_rttof_set_rx_tx_delay_indicator
    apps_common.o(i.apps_common_lr11xx_radio_rttof_init) refers to apps_common.o(.data) for shield
    apps_common.o(i.apps_common_lr11xx_radio_rttof_init) refers to apps_common.o(.constdata) for __func__
    apps_common.o(i.apps_common_lr11xx_receive) refers to lr11xx_radio.o(i.lr11xx_radio_get_rx_buffer_status) for lr11xx_radio_get_rx_buffer_status
    apps_common.o(i.apps_common_lr11xx_receive) refers to smtc_hal_dbg_trace.o(i.hal_mcu_trace_print) for hal_mcu_trace_print
    apps_common.o(i.apps_common_lr11xx_receive) refers to lr11xx_regmem.o(i.lr11xx_regmem_read_buffer8) for lr11xx_regmem_read_buffer8
    apps_common.o(i.apps_common_lr11xx_receive) refers to lr11xx_radio.o(i.lr11xx_radio_get_lora_pkt_status) for lr11xx_radio_get_lora_pkt_status
    apps_common.o(i.apps_common_lr11xx_receive) refers to apps_common.o(.conststring) for .conststring
    apps_common.o(i.apps_common_lr11xx_system_init) refers to lr11xx_system.o(i.lr11xx_system_reset) for lr11xx_system_reset
    apps_common.o(i.apps_common_lr11xx_system_init) refers to smtc_hal_dbg_trace.o(i.hal_mcu_trace_print) for hal_mcu_trace_print
    apps_common.o(i.apps_common_lr11xx_system_init) refers to lr11xx_system.o(i.lr11xx_system_set_reg_mode) for lr11xx_system_set_reg_mode
    apps_common.o(i.apps_common_lr11xx_system_init) refers to lr11xx_system.o(i.lr11xx_system_set_dio_as_rf_switch) for lr11xx_system_set_dio_as_rf_switch
    apps_common.o(i.apps_common_lr11xx_system_init) refers to lr11xx_system.o(i.lr11xx_system_set_tcxo_mode) for lr11xx_system_set_tcxo_mode
    apps_common.o(i.apps_common_lr11xx_system_init) refers to lr11xx_system.o(i.lr11xx_system_cfg_lfclk) for lr11xx_system_cfg_lfclk
    apps_common.o(i.apps_common_lr11xx_system_init) refers to lr11xx_system.o(i.lr11xx_system_clear_errors) for lr11xx_system_clear_errors
    apps_common.o(i.apps_common_lr11xx_system_init) refers to lr11xx_system.o(i.lr11xx_system_calibrate) for lr11xx_system_calibrate
    apps_common.o(i.apps_common_lr11xx_system_init) refers to lr11xx_system.o(i.lr11xx_system_get_errors) for lr11xx_system_get_errors
    apps_common.o(i.apps_common_lr11xx_system_init) refers to lr11xx_system.o(i.lr11xx_system_clear_irq_status) for lr11xx_system_clear_irq_status
    apps_common.o(i.apps_common_lr11xx_system_init) refers to apps_common.o(.constdata) for __func__
    apps_common.o(i.apps_common_lr11xx_system_init) refers to apps_common.o(.data) for shield
    apps_common.o(i.apps_common_print_sdk_driver_version) refers to common_version.o(i.common_version_print) for common_version_print
    apps_common.o(i.apps_common_print_sdk_driver_version) refers to apps_common.o(i.print_driver_version) for print_driver_version
    apps_common.o(i.apps_common_print_sdk_driver_version) refers to smtc_hal_dbg_trace.o(i.hal_mcu_trace_print) for hal_mcu_trace_print
    apps_common.o(i.apps_common_shield_init) refers to smtc_shield_pinout_mapping.o(i.smtc_shield_pinout_mapping_get_gpio_cfg) for smtc_shield_pinout_mapping_get_gpio_cfg
    apps_common.o(i.apps_common_shield_init) refers to smtc_hal_mcu_gpio_stm32l4.o(i.smtc_hal_mcu_gpio_init_output) for smtc_hal_mcu_gpio_init_output
    apps_common.o(i.apps_common_shield_init) refers to apps_common.o(.data) for shield
    apps_common.o(i.apps_common_shield_init) refers to apps_common.o(.bss) for led_tx
    apps_common.o(i.get_time_on_air_in_ms) refers to lr11xx_radio.o(i.lr11xx_radio_get_lora_time_on_air_in_ms) for lr11xx_radio_get_lora_time_on_air_in_ms
    apps_common.o(i.get_time_on_air_in_ms) refers to lr11xx_radio.o(i.lr11xx_radio_get_gfsk_time_on_air_in_ms) for lr11xx_radio_get_gfsk_time_on_air_in_ms
    apps_common.o(i.get_time_on_air_in_ms) refers to apps_common.o(.data) for lora_mod_params
    apps_common.o(i.get_time_on_air_in_ms) refers to apps_common.o(.constdata) for lora_pkt_params
    apps_common.o(i.on_cad_done_detected) refers to smtc_hal_dbg_trace.o(i.hal_mcu_trace_print) for hal_mcu_trace_print
    apps_common.o(i.on_cad_done_undetected) refers to smtc_hal_dbg_trace.o(i.hal_mcu_trace_print) for hal_mcu_trace_print
    apps_common.o(i.on_fsk_len_error) refers to smtc_hal_dbg_trace.o(i.hal_mcu_trace_print) for hal_mcu_trace_print
    apps_common.o(i.on_gnss_scan_done) refers to smtc_hal_dbg_trace.o(i.hal_mcu_trace_print) for hal_mcu_trace_print
    apps_common.o(i.on_header_error) refers to smtc_hal_dbg_trace.o(i.hal_mcu_trace_print) for hal_mcu_trace_print
    apps_common.o(i.on_lora_rx_timestamp) refers to smtc_hal_dbg_trace.o(i.hal_mcu_trace_print) for hal_mcu_trace_print
    apps_common.o(i.on_preamble_detected) refers to smtc_hal_dbg_trace.o(i.hal_mcu_trace_print) for hal_mcu_trace_print
    apps_common.o(i.on_rttof_exchange_valid) refers to smtc_hal_dbg_trace.o(i.hal_mcu_trace_print) for hal_mcu_trace_print
    apps_common.o(i.on_rttof_request_discarded) refers to smtc_hal_dbg_trace.o(i.hal_mcu_trace_print) for hal_mcu_trace_print
    apps_common.o(i.on_rttof_request_valid) refers to smtc_hal_dbg_trace.o(i.hal_mcu_trace_print) for hal_mcu_trace_print
    apps_common.o(i.on_rttof_response_done) refers to smtc_hal_dbg_trace.o(i.hal_mcu_trace_print) for hal_mcu_trace_print
    apps_common.o(i.on_rttof_timeout) refers to smtc_hal_dbg_trace.o(i.hal_mcu_trace_print) for hal_mcu_trace_print
    apps_common.o(i.on_rx_crc_error) refers to smtc_hal_dbg_trace.o(i.hal_mcu_trace_print) for hal_mcu_trace_print
    apps_common.o(i.on_rx_done) refers to smtc_hal_dbg_trace.o(i.hal_mcu_trace_print) for hal_mcu_trace_print
    apps_common.o(i.on_rx_timeout) refers to smtc_hal_dbg_trace.o(i.hal_mcu_trace_print) for hal_mcu_trace_print
    apps_common.o(i.on_syncword_header_valid) refers to smtc_hal_dbg_trace.o(i.hal_mcu_trace_print) for hal_mcu_trace_print
    apps_common.o(i.on_tx_done) refers to smtc_hal_dbg_trace.o(i.hal_mcu_trace_print) for hal_mcu_trace_print
    apps_common.o(i.on_wifi_scan_done) refers to smtc_hal_dbg_trace.o(i.hal_mcu_trace_print) for hal_mcu_trace_print
    apps_common.o(i.print_common_configuration) refers to smtc_hal_dbg_trace.o(i.hal_mcu_trace_print) for hal_mcu_trace_print
    apps_common.o(i.print_common_configuration) refers to lr11xx_radio_types_str.o(i.lr11xx_radio_pkt_type_to_str) for lr11xx_radio_pkt_type_to_str
    apps_common.o(i.print_common_configuration) refers to lr11xx_radio_types_str.o(i.lr11xx_radio_fallback_modes_to_str) for lr11xx_radio_fallback_modes_to_str
    apps_common.o(i.print_driver_version) refers to smtc_hal_dbg_trace.o(i.hal_mcu_trace_print) for hal_mcu_trace_print
    apps_common.o(i.print_driver_version) refers to lr11xx_driver_version.o(i.lr11xx_driver_version_get_version_string) for lr11xx_driver_version_get_version_string
    apps_common.o(i.print_gfsk_configuration) refers to smtc_hal_dbg_trace.o(i.hal_mcu_trace_print) for hal_mcu_trace_print
    apps_common.o(i.print_gfsk_configuration) refers to lr11xx_radio_types_str.o(i.lr11xx_radio_gfsk_pulse_shape_to_str) for lr11xx_radio_gfsk_pulse_shape_to_str
    apps_common.o(i.print_gfsk_configuration) refers to lr11xx_radio_types_str.o(i.lr11xx_radio_gfsk_bw_to_str) for lr11xx_radio_gfsk_bw_to_str
    apps_common.o(i.print_gfsk_configuration) refers to lr11xx_radio_types_str.o(i.lr11xx_radio_gfsk_preamble_detector_to_str) for lr11xx_radio_gfsk_preamble_detector_to_str
    apps_common.o(i.print_gfsk_configuration) refers to lr11xx_radio_types_str.o(i.lr11xx_radio_gfsk_address_filtering_to_str) for lr11xx_radio_gfsk_address_filtering_to_str
    apps_common.o(i.print_gfsk_configuration) refers to lr11xx_radio_types_str.o(i.lr11xx_radio_gfsk_pkt_len_modes_to_str) for lr11xx_radio_gfsk_pkt_len_modes_to_str
    apps_common.o(i.print_gfsk_configuration) refers to lr11xx_radio_types_str.o(i.lr11xx_radio_gfsk_crc_type_to_str) for lr11xx_radio_gfsk_crc_type_to_str
    apps_common.o(i.print_gfsk_configuration) refers to lr11xx_radio_types_str.o(i.lr11xx_radio_gfsk_dc_free_to_str) for lr11xx_radio_gfsk_dc_free_to_str
    apps_common.o(i.print_lora_configuration) refers to smtc_hal_dbg_trace.o(i.hal_mcu_trace_print) for hal_mcu_trace_print
    apps_common.o(i.print_lora_configuration) refers to lr11xx_radio_types_str.o(i.lr11xx_radio_lora_sf_to_str) for lr11xx_radio_lora_sf_to_str
    apps_common.o(i.print_lora_configuration) refers to lr11xx_radio_types_str.o(i.lr11xx_radio_lora_bw_to_str) for lr11xx_radio_lora_bw_to_str
    apps_common.o(i.print_lora_configuration) refers to lr11xx_radio_types_str.o(i.lr11xx_radio_lora_cr_to_str) for lr11xx_radio_lora_cr_to_str
    apps_common.o(i.print_lora_configuration) refers to lr11xx_radio_types_str.o(i.lr11xx_radio_lora_pkt_len_modes_to_str) for lr11xx_radio_lora_pkt_len_modes_to_str
    apps_common.o(i.print_lora_configuration) refers to lr11xx_radio_types_str.o(i.lr11xx_radio_lora_crc_to_str) for lr11xx_radio_lora_crc_to_str
    apps_common.o(i.print_lora_configuration) refers to lr11xx_radio_types_str.o(i.lr11xx_radio_lora_iq_to_str) for lr11xx_radio_lora_iq_to_str
    apps_common.o(i.radio_on_dio_irq) refers to apps_common.o(.data) for irq_fired
    apps_common.o(.data) refers to smtc_shield_lr1120mb1dis.o(i.smtc_shield_lr1120mb1dis_get_pa_pwr_cfg) for smtc_shield_lr1120mb1dis_get_pa_pwr_cfg
    apps_common.o(.data) refers to smtc_shield_lr1120mb1dis.o(i.smtc_shield_lr1120mb1dis_get_rssi_calibration_table) for smtc_shield_lr1120mb1dis_get_rssi_calibration_table
    apps_common.o(.data) refers to smtc_shield_lr1120mb1dis.o(i.smtc_shield_lr1120mb1dis_get_rf_switch_cfg) for smtc_shield_lr1120mb1dis_get_rf_switch_cfg
    apps_common.o(.data) refers to smtc_shield_lr1120mb1dis.o(i.smtc_shield_lr1120mb1dis_get_reg_mode) for smtc_shield_lr1120mb1dis_get_reg_mode
    apps_common.o(.data) refers to smtc_shield_lr1120mb1dis.o(i.smtc_shield_lr1120mb1dis_get_xosc_cfg) for smtc_shield_lr1120mb1dis_get_xosc_cfg
    apps_common.o(.data) refers to smtc_shield_lr1120mb1dis.o(i.smtc_shield_lr1120mb1dis_get_lfclk_cfg) for smtc_shield_lr1120mb1dis_get_lfclk_cfg
    apps_common.o(.data) refers to smtc_shield_lr1120mb1dis.o(i.smtc_shield_lr1120mb1dis_get_pinout) for smtc_shield_lr1120mb1dis_get_pinout
    apps_common.o(.data) refers to smtc_shield_lr11x0_common.o(i.smtc_shield_lr11x0_common_rttof_recommended_rx_tx_delay_indicator) for smtc_shield_lr11x0_common_rttof_recommended_rx_tx_delay_indicator
    apps_version.o(i.apps_version_assert_version_is_geolocation_capable) refers to apps_version.o(i.apps_version_assert_version_is_lr1110) for apps_version_assert_version_is_lr1110
    apps_version.o(i.apps_version_assert_version_is_geolocation_capable) refers to apps_version.o(i.apps_version_assert_version_is_lr1120) for apps_version_assert_version_is_lr1120
    apps_version.o(i.apps_version_fetch_check_print_version) refers to apps_common.o(i.apps_common_lr11xx_fetch_version) for apps_common_lr11xx_fetch_version
    apps_version.o(i.apps_version_fetch_check_print_version) refers to apps_common.o(i.apps_common_lr11xx_print_version) for apps_common_lr11xx_print_version
    apps_version.o(.constdata) refers to apps_version.o(i.apps_version_assert_version_is_geolocation_capable) for apps_version_assert_version_is_geolocation_capable
    smtc_hal_dbg_trace.o(i.hal_mcu_trace_print) refers to uart_init.o(i.vprint) for vprint
    smtc_shield_pinout_mapping.o(i.smtc_shield_pinout_mapping_get_gpio_cfg) refers to smtc_shield_pinout_mapping.o(.constdata) for arduino_mapping
    common_version.o(i.common_version_print) refers to smtc_hal_dbg_trace.o(i.hal_mcu_trace_print) for hal_mcu_trace_print
    common_version.o(i.common_version_print) refers to common_version.o(.data) for apps_modem_common_sdk_version
    common_version.o(.data) refers to common_version.o(.conststring) for .conststring
    uart_init.o(i.ATC_IdleLine) refers to smtc_hal_dbg_trace.o(i.hal_mcu_trace_print) for hal_mcu_trace_print
    uart_init.o(i.ATC_IdleLine) refers to memcpya.o(.text) for __aeabi_memcpy
    uart_init.o(i.ATC_IdleLine) refers to uart_init.o(.conststring) for .conststring
    uart_init.o(i.atc_per_event_callback) refers to smtc_hal_dbg_trace.o(i.hal_mcu_trace_print) for hal_mcu_trace_print
    uart_init.o(i.main_loop) refers to uart_init.o(i.ATC_IdleLine) for ATC_IdleLine
    uart_init.o(i.main_loop) refers to atc.o(i.ATC_Loop) for ATC_Loop
    uart_init.o(i.main_loop) refers to stm32l4xx_ll_utils.o(i.LL_mDelay) for LL_mDelay
    uart_init.o(i.main_loop) refers to uart_init.o(.data) for at_command_received
    uart_init.o(i.main_loop) refers to uart_init.o(.bss) for atc_handle
    uart_init.o(i.uart_init) refers to uart_init.o(i.uart_init_base) for uart_init_base
    uart_init.o(i.uart_init) refers to atc.o(i.ATC_Init) for ATC_Init
    uart_init.o(i.uart_init) refers to smtc_hal_dbg_trace.o(i.hal_mcu_trace_print) for hal_mcu_trace_print
    uart_init.o(i.uart_init) refers to atc.o(i.ATC_SetEvents) for ATC_SetEvents
    uart_init.o(i.uart_init) refers to uart_init.o(i.uart_rx_callback) for uart_rx_callback
    uart_init.o(i.uart_init) refers to uart_init.o(.data) for inst_uart
    uart_init.o(i.uart_init) refers to uart_init.o(.bss) for atc_handle
    uart_init.o(i.uart_init_base) refers to smtc_hal_mcu_uart_stm32l4.o(i.smtc_hal_mcu_uart_init) for smtc_hal_mcu_uart_init
    uart_init.o(i.uart_init_base) refers to smtc_hal_dbg_trace.o(i.hal_mcu_trace_print) for hal_mcu_trace_print
    uart_init.o(i.uart_init_base) refers to uart_init.o(.constdata) for .constdata
    uart_init.o(i.uart_init_base) refers to uart_init.o(.data) for inst_uart
    uart_init.o(i.uart_rx_callback) refers to smtc_hal_dbg_trace.o(i.hal_mcu_trace_print) for hal_mcu_trace_print
    uart_init.o(i.uart_rx_callback) refers to memcpya.o(.text) for __aeabi_memcpy
    uart_init.o(i.uart_rx_callback) refers to uart_init.o(.data) for rx_index
    uart_init.o(i.uart_rx_callback) refers to uart_init.o(.bss) for rx_buffer
    uart_init.o(i.vprint) refers to printfa.o(i.__0vsprintf) for vsprintf
    uart_init.o(i.vprint) refers to strlen.o(.text) for strlen
    uart_init.o(i.vprint) refers to smtc_hal_mcu_uart_stm32l4.o(i.smtc_hal_mcu_uart_send) for smtc_hal_mcu_uart_send
    uart_init.o(i.vprint) refers to uart_init.o(.data) for inst_uart
    uart_init.o(.data) refers to uart_init.o(.conststring) for .conststring
    uart_init.o(.data) refers to uart_init.o(i.atc_per_event_callback) for atc_per_event_callback
    main_per.o(i.main) refers to smtc_hal_mcu_stm32l4.o(i.smtc_hal_mcu_init) for smtc_hal_mcu_init
    main_per.o(i.main) refers to apps_common.o(i.apps_common_shield_init) for apps_common_shield_init
    main_per.o(i.main) refers to uart_init.o(i.uart_init) for uart_init
    main_per.o(i.main) refers to uart_init.o(i.main_loop) for main_loop
    main_per.o(i.main) refers to apps_common.o(i.apps_common_lr11xx_get_context) for apps_common_lr11xx_get_context
    main_per.o(i.main) refers to apps_common.o(i.apps_common_lr11xx_system_init) for apps_common_lr11xx_system_init
    main_per.o(i.main) refers to apps_common.o(i.apps_common_lr11xx_fetch_and_print_version) for apps_common_lr11xx_fetch_and_print_version
    main_per.o(i.main) refers to apps_common.o(i.apps_common_lr11xx_radio_init) for apps_common_lr11xx_radio_init
    main_per.o(i.main) refers to lr11xx_system.o(i.lr11xx_system_set_dio_irq_params) for lr11xx_system_set_dio_irq_params
    main_per.o(i.main) refers to smtc_hal_dbg_trace.o(i.hal_mcu_trace_print) for hal_mcu_trace_print
    main_per.o(i.main) refers to lr11xx_system.o(i.lr11xx_system_clear_irq_status) for lr11xx_system_clear_irq_status
    main_per.o(i.main) refers to apps_common.o(i.get_time_on_air_in_ms) for get_time_on_air_in_ms
    main_per.o(i.main) refers to apps_common.o(i.apps_common_lr11xx_handle_pre_rx) for apps_common_lr11xx_handle_pre_rx
    main_per.o(i.main) refers to lr11xx_radio.o(i.lr11xx_radio_set_rx) for lr11xx_radio_set_rx
    main_per.o(i.main) refers to apps_common.o(i.apps_common_lr11xx_irq_process) for apps_common_lr11xx_irq_process
    main_per.o(i.main) refers to main_per.o(.data) for context
    main_per.o(i.main) refers to main_per.o(.constdata) for __func__
    main_per.o(i.on_fsk_len_error) refers to main_per.o(i.per_reception_failure_handling) for per_reception_failure_handling
    main_per.o(i.on_fsk_len_error) refers to main_per.o(.data) for nb_fsk_len_error
    main_per.o(i.on_rx_crc_error) refers to main_per.o(i.per_reception_failure_handling) for per_reception_failure_handling
    main_per.o(i.on_rx_crc_error) refers to main_per.o(.data) for nb_rx_error
    main_per.o(i.on_rx_done) refers to apps_common.o(i.apps_common_lr11xx_handle_post_rx) for apps_common_lr11xx_handle_post_rx
    main_per.o(i.on_rx_done) refers to apps_common.o(i.apps_common_lr11xx_receive) for apps_common_lr11xx_receive
    main_per.o(i.on_rx_done) refers to memcmp.o(.text) for memcmp
    main_per.o(i.on_rx_done) refers to smtc_hal_dbg_trace.o(i.hal_mcu_trace_print) for hal_mcu_trace_print
    main_per.o(i.on_rx_done) refers to apps_common.o(i.apps_common_lr11xx_handle_pre_rx) for apps_common_lr11xx_handle_pre_rx
    main_per.o(i.on_rx_done) refers to lr11xx_radio.o(i.lr11xx_radio_set_rx) for lr11xx_radio_set_rx
    main_per.o(i.on_rx_done) refers to main_per.o(.data) for buffer
    main_per.o(i.on_rx_done) refers to main_per.o(.constdata) for __func__
    main_per.o(i.on_rx_timeout) refers to main_per.o(i.per_reception_failure_handling) for per_reception_failure_handling
    main_per.o(i.on_rx_timeout) refers to main_per.o(.data) for nb_rx_timeout
    main_per.o(i.on_tx_done) refers to apps_common.o(i.apps_common_lr11xx_handle_post_tx) for apps_common_lr11xx_handle_post_tx
    main_per.o(i.on_tx_done) refers to stm32l4xx_ll_utils.o(i.LL_mDelay) for LL_mDelay
    main_per.o(i.on_tx_done) refers to smtc_hal_dbg_trace.o(i.hal_mcu_trace_print) for hal_mcu_trace_print
    main_per.o(i.on_tx_done) refers to lr11xx_regmem.o(i.lr11xx_regmem_write_buffer8) for lr11xx_regmem_write_buffer8
    main_per.o(i.on_tx_done) refers to apps_common.o(i.apps_common_lr11xx_handle_pre_tx) for apps_common_lr11xx_handle_pre_tx
    main_per.o(i.on_tx_done) refers to lr11xx_radio.o(i.lr11xx_radio_set_tx) for lr11xx_radio_set_tx
    main_per.o(i.on_tx_done) refers to main_per.o(.data) for buffer
    main_per.o(i.on_tx_done) refers to main_per.o(.constdata) for __func__
    main_per.o(i.per_reception_failure_handling) refers to apps_common.o(i.apps_common_lr11xx_handle_post_rx) for apps_common_lr11xx_handle_post_rx
    main_per.o(i.per_reception_failure_handling) refers to apps_common.o(i.apps_common_lr11xx_handle_pre_rx) for apps_common_lr11xx_handle_pre_rx
    main_per.o(i.per_reception_failure_handling) refers to lr11xx_radio.o(i.lr11xx_radio_set_rx) for lr11xx_radio_set_rx
    main_per.o(i.per_reception_failure_handling) refers to smtc_hal_dbg_trace.o(i.hal_mcu_trace_print) for hal_mcu_trace_print
    main_per.o(i.per_reception_failure_handling) refers to main_per.o(.data) for first_pkt_flag
    main_per.o(i.per_reception_failure_handling) refers to main_per.o(.constdata) for __func__
    main_per.o(.data) refers to main_per.o(.conststring) for .conststring
    atc.o(i.ATC_IdleLineCallback) refers to smtc_hal_dbg_trace.o(i.hal_mcu_trace_print) for hal_mcu_trace_print
    atc.o(i.ATC_IdleLineCallback) refers to memcpya.o(.text) for __aeabi_memcpy
    atc.o(i.ATC_IdleLineCallback) refers to atc.o(.conststring) for .conststring
    atc.o(i.ATC_Init) refers to smtc_hal_dbg_trace.o(i.hal_mcu_trace_print) for hal_mcu_trace_print
    atc.o(i.ATC_Init) refers to memseta.o(.text) for __aeabi_memclr4
    atc.o(i.ATC_Init) refers to strncpy.o(.text) for strncpy
    atc.o(i.ATC_Init) refers to malloc.o(i.malloc) for malloc
    atc.o(i.ATC_Init) refers to malloc.o(i.free) for free
    atc.o(i.ATC_Loop) refers to smtc_hal_dbg_trace.o(i.hal_mcu_trace_print) for hal_mcu_trace_print
    atc.o(i.ATC_Loop) refers to strstr.o(.text) for strstr
    atc.o(i.ATC_Loop) refers to memseta.o(.text) for __aeabi_memclr
    atc.o(i.ATC_SetEvents) refers to smtc_hal_dbg_trace.o(i.hal_mcu_trace_print) for hal_mcu_trace_print
    stm32l4xx_ll_spi.o(i.LL_SPI_DeInit) refers to stm32l4xx_ll_spi.o(i.LL_APB1_GRP1_ForceReset) for LL_APB1_GRP1_ForceReset
    stm32l4xx_ll_spi.o(i.LL_SPI_DeInit) refers to stm32l4xx_ll_spi.o(i.LL_APB1_GRP1_ReleaseReset) for LL_APB1_GRP1_ReleaseReset
    stm32l4xx_ll_tim.o(i.LL_TIM_DeInit) refers to stm32l4xx_ll_tim.o(i.LL_APB2_GRP1_ForceReset) for LL_APB2_GRP1_ForceReset
    stm32l4xx_ll_tim.o(i.LL_TIM_DeInit) refers to stm32l4xx_ll_tim.o(i.LL_APB2_GRP1_ReleaseReset) for LL_APB2_GRP1_ReleaseReset
    stm32l4xx_ll_tim.o(i.LL_TIM_DeInit) refers to stm32l4xx_ll_tim.o(i.LL_APB1_GRP1_ForceReset) for LL_APB1_GRP1_ForceReset
    stm32l4xx_ll_tim.o(i.LL_TIM_DeInit) refers to stm32l4xx_ll_tim.o(i.LL_APB1_GRP1_ReleaseReset) for LL_APB1_GRP1_ReleaseReset
    stm32l4xx_ll_tim.o(i.LL_TIM_HALLSENSOR_Init) refers to stm32l4xx_ll_tim.o(i.LL_TIM_OC_SetCompareCH2) for LL_TIM_OC_SetCompareCH2
    stm32l4xx_ll_tim.o(i.LL_TIM_IC_Init) refers to stm32l4xx_ll_tim.o(i.IC1Config) for IC1Config
    stm32l4xx_ll_tim.o(i.LL_TIM_IC_Init) refers to stm32l4xx_ll_tim.o(i.IC2Config) for IC2Config
    stm32l4xx_ll_tim.o(i.LL_TIM_IC_Init) refers to stm32l4xx_ll_tim.o(i.IC3Config) for IC3Config
    stm32l4xx_ll_tim.o(i.LL_TIM_IC_Init) refers to stm32l4xx_ll_tim.o(i.IC4Config) for IC4Config
    stm32l4xx_ll_tim.o(i.LL_TIM_OC_Init) refers to stm32l4xx_ll_tim.o(i.OC1Config) for OC1Config
    stm32l4xx_ll_tim.o(i.LL_TIM_OC_Init) refers to stm32l4xx_ll_tim.o(i.OC2Config) for OC2Config
    stm32l4xx_ll_tim.o(i.LL_TIM_OC_Init) refers to stm32l4xx_ll_tim.o(i.OC3Config) for OC3Config
    stm32l4xx_ll_tim.o(i.LL_TIM_OC_Init) refers to stm32l4xx_ll_tim.o(i.OC4Config) for OC4Config
    stm32l4xx_ll_tim.o(i.LL_TIM_OC_Init) refers to stm32l4xx_ll_tim.o(i.OC5Config) for OC5Config
    stm32l4xx_ll_tim.o(i.LL_TIM_OC_Init) refers to stm32l4xx_ll_tim.o(i.OC6Config) for OC6Config
    stm32l4xx_ll_tim.o(i.OC2Config) refers to stm32l4xx_ll_tim.o(i.LL_TIM_OC_SetCompareCH2) for LL_TIM_OC_SetCompareCH2
    stm32l4xx_ll_lptim.o(i.LL_LPTIM_Disable) refers to stm32l4xx_ll_lptim.o(i.LL_RCC_GetLPTIMClockSource) for LL_RCC_GetLPTIMClockSource
    stm32l4xx_ll_lptim.o(i.LL_LPTIM_Disable) refers to stm32l4xx_ll_lptim.o(i.LL_LPTIM_DeInit) for LL_LPTIM_DeInit
    stm32l4xx_ll_lptim.o(i.LL_LPTIM_Disable) refers to stm32l4xx_ll_rcc.o(i.LL_RCC_GetSystemClocksFreq) for LL_RCC_GetSystemClocksFreq
    stm32l4xx_ll_lptim.o(i.LL_LPTIM_Disable) refers to stm32l4xx_ll_lptim.o(i.LL_RCC_SetLPTIMClockSource) for LL_RCC_SetLPTIMClockSource
    stm32l4xx_ll_usart.o(i.LL_USART_ClockInit) refers to stm32l4xx_ll_usart.o(i.LL_USART_IsEnabled) for LL_USART_IsEnabled
    stm32l4xx_ll_usart.o(i.LL_USART_DeInit) refers to stm32l4xx_ll_usart.o(i.LL_APB1_GRP1_ForceReset) for LL_APB1_GRP1_ForceReset
    stm32l4xx_ll_usart.o(i.LL_USART_DeInit) refers to stm32l4xx_ll_usart.o(i.LL_APB1_GRP1_ReleaseReset) for LL_APB1_GRP1_ReleaseReset
    stm32l4xx_ll_usart.o(i.LL_USART_Init) refers to stm32l4xx_ll_usart.o(i.LL_USART_IsEnabled) for LL_USART_IsEnabled
    stm32l4xx_ll_usart.o(i.LL_USART_Init) refers to stm32l4xx_ll_rcc.o(i.LL_RCC_GetUSARTClockFreq) for LL_RCC_GetUSARTClockFreq
    stm32l4xx_ll_usart.o(i.LL_USART_Init) refers to stm32l4xx_ll_rcc.o(i.LL_RCC_GetUARTClockFreq) for LL_RCC_GetUARTClockFreq
    stm32l4xx_ll_rcc.o(i.LL_RCC_DeInit) refers to stm32l4xx_ll_rcc.o(i.LL_RCC_MSI_IsReady) for LL_RCC_MSI_IsReady
    stm32l4xx_ll_rcc.o(i.LL_RCC_GetADCClockFreq) refers to stm32l4xx_ll_rcc.o(i.LL_RCC_PLLSAI1_IsReady) for LL_RCC_PLLSAI1_IsReady
    stm32l4xx_ll_rcc.o(i.LL_RCC_GetADCClockFreq) refers to stm32l4xx_ll_rcc.o(i.RCC_PLLSAI1_GetFreqDomain_ADC) for RCC_PLLSAI1_GetFreqDomain_ADC
    stm32l4xx_ll_rcc.o(i.LL_RCC_GetADCClockFreq) refers to stm32l4xx_ll_rcc.o(i.LL_RCC_PLLSAI2_IsReady) for LL_RCC_PLLSAI2_IsReady
    stm32l4xx_ll_rcc.o(i.LL_RCC_GetADCClockFreq) refers to stm32l4xx_ll_rcc.o(i.RCC_PLLSAI2_GetFreqDomain_ADC) for RCC_PLLSAI2_GetFreqDomain_ADC
    stm32l4xx_ll_rcc.o(i.LL_RCC_GetADCClockFreq) refers to stm32l4xx_ll_rcc.o(i.RCC_GetSystemClockFreq) for RCC_GetSystemClockFreq
    stm32l4xx_ll_rcc.o(i.LL_RCC_GetDFSDMClockFreq) refers to stm32l4xx_ll_rcc.o(i.RCC_GetSystemClockFreq) for RCC_GetSystemClockFreq
    stm32l4xx_ll_rcc.o(i.LL_RCC_GetDFSDMClockFreq) refers to stm32l4xx_ll_rcc.o(i.RCC_GetHCLKClockFreq) for RCC_GetHCLKClockFreq
    stm32l4xx_ll_rcc.o(i.LL_RCC_GetDFSDMClockFreq) refers to stm32l4xx_ll_rcc.o(i.RCC_GetPCLK2ClockFreq) for RCC_GetPCLK2ClockFreq
    stm32l4xx_ll_rcc.o(i.LL_RCC_GetI2CClockFreq) refers to stm32l4xx_ll_rcc.o(i.LL_RCC_GetI2CClockSource) for LL_RCC_GetI2CClockSource
    stm32l4xx_ll_rcc.o(i.LL_RCC_GetI2CClockFreq) refers to stm32l4xx_ll_rcc.o(i.RCC_GetSystemClockFreq) for RCC_GetSystemClockFreq
    stm32l4xx_ll_rcc.o(i.LL_RCC_GetI2CClockFreq) refers to stm32l4xx_ll_rcc.o(i.LL_RCC_HSI_IsReady) for LL_RCC_HSI_IsReady
    stm32l4xx_ll_rcc.o(i.LL_RCC_GetI2CClockFreq) refers to stm32l4xx_ll_rcc.o(i.RCC_GetHCLKClockFreq) for RCC_GetHCLKClockFreq
    stm32l4xx_ll_rcc.o(i.LL_RCC_GetI2CClockFreq) refers to stm32l4xx_ll_rcc.o(i.RCC_GetPCLK1ClockFreq) for RCC_GetPCLK1ClockFreq
    stm32l4xx_ll_rcc.o(i.LL_RCC_GetLPTIMClockFreq) refers to stm32l4xx_ll_rcc.o(i.LL_RCC_GetLPTIMClockSource) for LL_RCC_GetLPTIMClockSource
    stm32l4xx_ll_rcc.o(i.LL_RCC_GetLPTIMClockFreq) refers to stm32l4xx_ll_rcc.o(i.LL_RCC_LSI_IsReady) for LL_RCC_LSI_IsReady
    stm32l4xx_ll_rcc.o(i.LL_RCC_GetLPTIMClockFreq) refers to stm32l4xx_ll_rcc.o(i.LL_RCC_HSI_IsReady) for LL_RCC_HSI_IsReady
    stm32l4xx_ll_rcc.o(i.LL_RCC_GetLPTIMClockFreq) refers to stm32l4xx_ll_rcc.o(i.LL_RCC_LSE_IsReady) for LL_RCC_LSE_IsReady
    stm32l4xx_ll_rcc.o(i.LL_RCC_GetLPTIMClockFreq) refers to stm32l4xx_ll_rcc.o(i.RCC_GetSystemClockFreq) for RCC_GetSystemClockFreq
    stm32l4xx_ll_rcc.o(i.LL_RCC_GetLPTIMClockFreq) refers to stm32l4xx_ll_rcc.o(i.RCC_GetHCLKClockFreq) for RCC_GetHCLKClockFreq
    stm32l4xx_ll_rcc.o(i.LL_RCC_GetLPTIMClockFreq) refers to stm32l4xx_ll_rcc.o(i.RCC_GetPCLK1ClockFreq) for RCC_GetPCLK1ClockFreq
    stm32l4xx_ll_rcc.o(i.LL_RCC_GetLPUARTClockFreq) refers to stm32l4xx_ll_rcc.o(i.RCC_GetSystemClockFreq) for RCC_GetSystemClockFreq
    stm32l4xx_ll_rcc.o(i.LL_RCC_GetLPUARTClockFreq) refers to stm32l4xx_ll_rcc.o(i.LL_RCC_HSI_IsReady) for LL_RCC_HSI_IsReady
    stm32l4xx_ll_rcc.o(i.LL_RCC_GetLPUARTClockFreq) refers to stm32l4xx_ll_rcc.o(i.LL_RCC_LSE_IsReady) for LL_RCC_LSE_IsReady
    stm32l4xx_ll_rcc.o(i.LL_RCC_GetLPUARTClockFreq) refers to stm32l4xx_ll_rcc.o(i.RCC_GetHCLKClockFreq) for RCC_GetHCLKClockFreq
    stm32l4xx_ll_rcc.o(i.LL_RCC_GetLPUARTClockFreq) refers to stm32l4xx_ll_rcc.o(i.RCC_GetPCLK1ClockFreq) for RCC_GetPCLK1ClockFreq
    stm32l4xx_ll_rcc.o(i.LL_RCC_GetRNGClockFreq) refers to stm32l4xx_ll_rcc.o(i.LL_RCC_PLLSAI1_IsReady) for LL_RCC_PLLSAI1_IsReady
    stm32l4xx_ll_rcc.o(i.LL_RCC_GetRNGClockFreq) refers to stm32l4xx_ll_rcc.o(i.LL_RCC_PLLSAI1_IsEnabledDomain_48M) for LL_RCC_PLLSAI1_IsEnabledDomain_48M
    stm32l4xx_ll_rcc.o(i.LL_RCC_GetRNGClockFreq) refers to stm32l4xx_ll_rcc.o(i.RCC_PLLSAI1_GetFreqDomain_48M) for RCC_PLLSAI1_GetFreqDomain_48M
    stm32l4xx_ll_rcc.o(i.LL_RCC_GetRNGClockFreq) refers to stm32l4xx_ll_rcc.o(i.LL_RCC_PLL_IsReady) for LL_RCC_PLL_IsReady
    stm32l4xx_ll_rcc.o(i.LL_RCC_GetRNGClockFreq) refers to stm32l4xx_ll_rcc.o(i.LL_RCC_PLL_IsEnabledDomain_48M) for LL_RCC_PLL_IsEnabledDomain_48M
    stm32l4xx_ll_rcc.o(i.LL_RCC_GetRNGClockFreq) refers to stm32l4xx_ll_rcc.o(i.RCC_PLL_GetFreqDomain_48M) for RCC_PLL_GetFreqDomain_48M
    stm32l4xx_ll_rcc.o(i.LL_RCC_GetRNGClockFreq) refers to stm32l4xx_ll_rcc.o(i.LL_RCC_MSI_IsReady) for LL_RCC_MSI_IsReady
    stm32l4xx_ll_rcc.o(i.LL_RCC_GetRNGClockFreq) refers to stm32l4xx_ll_rcc.o(i.LL_RCC_MSI_IsEnabledRangeSelect) for LL_RCC_MSI_IsEnabledRangeSelect
    stm32l4xx_ll_rcc.o(i.LL_RCC_GetRNGClockFreq) refers to stm32l4xx_ll_rcc.o(i.LL_RCC_MSI_GetRange) for LL_RCC_MSI_GetRange
    stm32l4xx_ll_rcc.o(i.LL_RCC_GetRNGClockFreq) refers to stm32l4xx_ll_rcc.o(i.LL_RCC_MSI_GetRangeAfterStandby) for LL_RCC_MSI_GetRangeAfterStandby
    stm32l4xx_ll_rcc.o(i.LL_RCC_GetRNGClockFreq) refers to system_stm32l4xx.o(.constdata) for MSIRangeTable
    stm32l4xx_ll_rcc.o(i.LL_RCC_GetSAIClockFreq) refers to stm32l4xx_ll_rcc.o(i.LL_RCC_GetSAIClockSource) for LL_RCC_GetSAIClockSource
    stm32l4xx_ll_rcc.o(i.LL_RCC_GetSAIClockFreq) refers to stm32l4xx_ll_rcc.o(i.LL_RCC_PLLSAI1_IsReady) for LL_RCC_PLLSAI1_IsReady
    stm32l4xx_ll_rcc.o(i.LL_RCC_GetSAIClockFreq) refers to stm32l4xx_ll_rcc.o(i.LL_RCC_PLLSAI1_IsEnabledDomain_SAI) for LL_RCC_PLLSAI1_IsEnabledDomain_SAI
    stm32l4xx_ll_rcc.o(i.LL_RCC_GetSAIClockFreq) refers to stm32l4xx_ll_rcc.o(i.RCC_PLLSAI1_GetFreqDomain_SAI) for RCC_PLLSAI1_GetFreqDomain_SAI
    stm32l4xx_ll_rcc.o(i.LL_RCC_GetSAIClockFreq) refers to stm32l4xx_ll_rcc.o(i.LL_RCC_PLLSAI2_IsReady) for LL_RCC_PLLSAI2_IsReady
    stm32l4xx_ll_rcc.o(i.LL_RCC_GetSAIClockFreq) refers to stm32l4xx_ll_rcc.o(i.LL_RCC_PLLSAI2_IsEnabledDomain_SAI) for LL_RCC_PLLSAI2_IsEnabledDomain_SAI
    stm32l4xx_ll_rcc.o(i.LL_RCC_GetSAIClockFreq) refers to stm32l4xx_ll_rcc.o(i.RCC_PLLSAI2_GetFreqDomain_SAI) for RCC_PLLSAI2_GetFreqDomain_SAI
    stm32l4xx_ll_rcc.o(i.LL_RCC_GetSAIClockFreq) refers to stm32l4xx_ll_rcc.o(i.LL_RCC_PLL_IsReady) for LL_RCC_PLL_IsReady
    stm32l4xx_ll_rcc.o(i.LL_RCC_GetSAIClockFreq) refers to stm32l4xx_ll_rcc.o(i.LL_RCC_PLL_IsEnabledDomain_SAI) for LL_RCC_PLL_IsEnabledDomain_SAI
    stm32l4xx_ll_rcc.o(i.LL_RCC_GetSAIClockFreq) refers to stm32l4xx_ll_rcc.o(i.RCC_PLL_GetFreqDomain_SAI) for RCC_PLL_GetFreqDomain_SAI
    stm32l4xx_ll_rcc.o(i.LL_RCC_GetSDMMCClockFreq) refers to stm32l4xx_ll_rcc.o(i.LL_RCC_PLLSAI1_IsReady) for LL_RCC_PLLSAI1_IsReady
    stm32l4xx_ll_rcc.o(i.LL_RCC_GetSDMMCClockFreq) refers to stm32l4xx_ll_rcc.o(i.LL_RCC_PLLSAI1_IsEnabledDomain_48M) for LL_RCC_PLLSAI1_IsEnabledDomain_48M
    stm32l4xx_ll_rcc.o(i.LL_RCC_GetSDMMCClockFreq) refers to stm32l4xx_ll_rcc.o(i.RCC_PLLSAI1_GetFreqDomain_48M) for RCC_PLLSAI1_GetFreqDomain_48M
    stm32l4xx_ll_rcc.o(i.LL_RCC_GetSDMMCClockFreq) refers to stm32l4xx_ll_rcc.o(i.LL_RCC_PLL_IsReady) for LL_RCC_PLL_IsReady
    stm32l4xx_ll_rcc.o(i.LL_RCC_GetSDMMCClockFreq) refers to stm32l4xx_ll_rcc.o(i.LL_RCC_PLL_IsEnabledDomain_48M) for LL_RCC_PLL_IsEnabledDomain_48M
    stm32l4xx_ll_rcc.o(i.LL_RCC_GetSDMMCClockFreq) refers to stm32l4xx_ll_rcc.o(i.RCC_PLL_GetFreqDomain_48M) for RCC_PLL_GetFreqDomain_48M
    stm32l4xx_ll_rcc.o(i.LL_RCC_GetSDMMCClockFreq) refers to stm32l4xx_ll_rcc.o(i.LL_RCC_MSI_IsReady) for LL_RCC_MSI_IsReady
    stm32l4xx_ll_rcc.o(i.LL_RCC_GetSDMMCClockFreq) refers to stm32l4xx_ll_rcc.o(i.LL_RCC_MSI_IsEnabledRangeSelect) for LL_RCC_MSI_IsEnabledRangeSelect
    stm32l4xx_ll_rcc.o(i.LL_RCC_GetSDMMCClockFreq) refers to stm32l4xx_ll_rcc.o(i.LL_RCC_MSI_GetRange) for LL_RCC_MSI_GetRange
    stm32l4xx_ll_rcc.o(i.LL_RCC_GetSDMMCClockFreq) refers to stm32l4xx_ll_rcc.o(i.LL_RCC_MSI_GetRangeAfterStandby) for LL_RCC_MSI_GetRangeAfterStandby
    stm32l4xx_ll_rcc.o(i.LL_RCC_GetSDMMCClockFreq) refers to system_stm32l4xx.o(.constdata) for MSIRangeTable
    stm32l4xx_ll_rcc.o(i.LL_RCC_GetSWPMIClockFreq) refers to stm32l4xx_ll_rcc.o(i.LL_RCC_HSI_IsReady) for LL_RCC_HSI_IsReady
    stm32l4xx_ll_rcc.o(i.LL_RCC_GetSWPMIClockFreq) refers to stm32l4xx_ll_rcc.o(i.RCC_GetSystemClockFreq) for RCC_GetSystemClockFreq
    stm32l4xx_ll_rcc.o(i.LL_RCC_GetSWPMIClockFreq) refers to stm32l4xx_ll_rcc.o(i.RCC_GetHCLKClockFreq) for RCC_GetHCLKClockFreq
    stm32l4xx_ll_rcc.o(i.LL_RCC_GetSWPMIClockFreq) refers to stm32l4xx_ll_rcc.o(i.RCC_GetPCLK1ClockFreq) for RCC_GetPCLK1ClockFreq
    stm32l4xx_ll_rcc.o(i.LL_RCC_GetSystemClocksFreq) refers to stm32l4xx_ll_rcc.o(i.RCC_GetSystemClockFreq) for RCC_GetSystemClockFreq
    stm32l4xx_ll_rcc.o(i.LL_RCC_GetSystemClocksFreq) refers to stm32l4xx_ll_rcc.o(i.RCC_GetHCLKClockFreq) for RCC_GetHCLKClockFreq
    stm32l4xx_ll_rcc.o(i.LL_RCC_GetSystemClocksFreq) refers to stm32l4xx_ll_rcc.o(i.RCC_GetPCLK1ClockFreq) for RCC_GetPCLK1ClockFreq
    stm32l4xx_ll_rcc.o(i.LL_RCC_GetSystemClocksFreq) refers to stm32l4xx_ll_rcc.o(i.RCC_GetPCLK2ClockFreq) for RCC_GetPCLK2ClockFreq
    stm32l4xx_ll_rcc.o(i.LL_RCC_GetUARTClockFreq) refers to stm32l4xx_ll_rcc.o(i.LL_RCC_GetUARTClockSource) for LL_RCC_GetUARTClockSource
    stm32l4xx_ll_rcc.o(i.LL_RCC_GetUARTClockFreq) refers to stm32l4xx_ll_rcc.o(i.RCC_GetSystemClockFreq) for RCC_GetSystemClockFreq
    stm32l4xx_ll_rcc.o(i.LL_RCC_GetUARTClockFreq) refers to stm32l4xx_ll_rcc.o(i.LL_RCC_HSI_IsReady) for LL_RCC_HSI_IsReady
    stm32l4xx_ll_rcc.o(i.LL_RCC_GetUARTClockFreq) refers to stm32l4xx_ll_rcc.o(i.LL_RCC_LSE_IsReady) for LL_RCC_LSE_IsReady
    stm32l4xx_ll_rcc.o(i.LL_RCC_GetUARTClockFreq) refers to stm32l4xx_ll_rcc.o(i.RCC_GetHCLKClockFreq) for RCC_GetHCLKClockFreq
    stm32l4xx_ll_rcc.o(i.LL_RCC_GetUARTClockFreq) refers to stm32l4xx_ll_rcc.o(i.RCC_GetPCLK1ClockFreq) for RCC_GetPCLK1ClockFreq
    stm32l4xx_ll_rcc.o(i.LL_RCC_GetUSARTClockFreq) refers to stm32l4xx_ll_rcc.o(i.LL_RCC_GetUSARTClockSource) for LL_RCC_GetUSARTClockSource
    stm32l4xx_ll_rcc.o(i.LL_RCC_GetUSARTClockFreq) refers to stm32l4xx_ll_rcc.o(i.RCC_GetSystemClockFreq) for RCC_GetSystemClockFreq
    stm32l4xx_ll_rcc.o(i.LL_RCC_GetUSARTClockFreq) refers to stm32l4xx_ll_rcc.o(i.LL_RCC_HSI_IsReady) for LL_RCC_HSI_IsReady
    stm32l4xx_ll_rcc.o(i.LL_RCC_GetUSARTClockFreq) refers to stm32l4xx_ll_rcc.o(i.LL_RCC_LSE_IsReady) for LL_RCC_LSE_IsReady
    stm32l4xx_ll_rcc.o(i.LL_RCC_GetUSARTClockFreq) refers to stm32l4xx_ll_rcc.o(i.RCC_GetHCLKClockFreq) for RCC_GetHCLKClockFreq
    stm32l4xx_ll_rcc.o(i.LL_RCC_GetUSARTClockFreq) refers to stm32l4xx_ll_rcc.o(i.RCC_GetPCLK2ClockFreq) for RCC_GetPCLK2ClockFreq
    stm32l4xx_ll_rcc.o(i.LL_RCC_GetUSARTClockFreq) refers to stm32l4xx_ll_rcc.o(i.RCC_GetPCLK1ClockFreq) for RCC_GetPCLK1ClockFreq
    stm32l4xx_ll_rcc.o(i.LL_RCC_GetUSBClockFreq) refers to stm32l4xx_ll_rcc.o(i.LL_RCC_PLLSAI1_IsReady) for LL_RCC_PLLSAI1_IsReady
    stm32l4xx_ll_rcc.o(i.LL_RCC_GetUSBClockFreq) refers to stm32l4xx_ll_rcc.o(i.LL_RCC_PLLSAI1_IsEnabledDomain_48M) for LL_RCC_PLLSAI1_IsEnabledDomain_48M
    stm32l4xx_ll_rcc.o(i.LL_RCC_GetUSBClockFreq) refers to stm32l4xx_ll_rcc.o(i.RCC_PLLSAI1_GetFreqDomain_48M) for RCC_PLLSAI1_GetFreqDomain_48M
    stm32l4xx_ll_rcc.o(i.LL_RCC_GetUSBClockFreq) refers to stm32l4xx_ll_rcc.o(i.LL_RCC_PLL_IsReady) for LL_RCC_PLL_IsReady
    stm32l4xx_ll_rcc.o(i.LL_RCC_GetUSBClockFreq) refers to stm32l4xx_ll_rcc.o(i.LL_RCC_PLL_IsEnabledDomain_48M) for LL_RCC_PLL_IsEnabledDomain_48M
    stm32l4xx_ll_rcc.o(i.LL_RCC_GetUSBClockFreq) refers to stm32l4xx_ll_rcc.o(i.RCC_PLL_GetFreqDomain_48M) for RCC_PLL_GetFreqDomain_48M
    stm32l4xx_ll_rcc.o(i.LL_RCC_GetUSBClockFreq) refers to stm32l4xx_ll_rcc.o(i.LL_RCC_MSI_IsReady) for LL_RCC_MSI_IsReady
    stm32l4xx_ll_rcc.o(i.LL_RCC_GetUSBClockFreq) refers to stm32l4xx_ll_rcc.o(i.LL_RCC_MSI_IsEnabledRangeSelect) for LL_RCC_MSI_IsEnabledRangeSelect
    stm32l4xx_ll_rcc.o(i.LL_RCC_GetUSBClockFreq) refers to stm32l4xx_ll_rcc.o(i.LL_RCC_MSI_GetRange) for LL_RCC_MSI_GetRange
    stm32l4xx_ll_rcc.o(i.LL_RCC_GetUSBClockFreq) refers to stm32l4xx_ll_rcc.o(i.LL_RCC_MSI_GetRangeAfterStandby) for LL_RCC_MSI_GetRangeAfterStandby
    stm32l4xx_ll_rcc.o(i.LL_RCC_GetUSBClockFreq) refers to system_stm32l4xx.o(.constdata) for MSIRangeTable
    stm32l4xx_ll_rcc.o(i.RCC_GetHCLKClockFreq) refers to system_stm32l4xx.o(.constdata) for AHBPrescTable
    stm32l4xx_ll_rcc.o(i.RCC_GetPCLK1ClockFreq) refers to system_stm32l4xx.o(.constdata) for APBPrescTable
    stm32l4xx_ll_rcc.o(i.RCC_GetPCLK2ClockFreq) refers to system_stm32l4xx.o(.constdata) for APBPrescTable
    stm32l4xx_ll_rcc.o(i.RCC_GetSystemClockFreq) refers to stm32l4xx_ll_rcc.o(i.LL_RCC_MSI_IsEnabledRangeSelect) for LL_RCC_MSI_IsEnabledRangeSelect
    stm32l4xx_ll_rcc.o(i.RCC_GetSystemClockFreq) refers to stm32l4xx_ll_rcc.o(i.LL_RCC_MSI_GetRange) for LL_RCC_MSI_GetRange
    stm32l4xx_ll_rcc.o(i.RCC_GetSystemClockFreq) refers to stm32l4xx_ll_rcc.o(i.LL_RCC_MSI_GetRangeAfterStandby) for LL_RCC_MSI_GetRangeAfterStandby
    stm32l4xx_ll_rcc.o(i.RCC_GetSystemClockFreq) refers to stm32l4xx_ll_rcc.o(i.RCC_PLL_GetFreqDomain_SYS) for RCC_PLL_GetFreqDomain_SYS
    stm32l4xx_ll_rcc.o(i.RCC_GetSystemClockFreq) refers to system_stm32l4xx.o(.constdata) for MSIRangeTable
    stm32l4xx_ll_rcc.o(i.RCC_PLLSAI1_GetFreqDomain_48M) refers to stm32l4xx_ll_rcc.o(i.LL_RCC_PLL_GetMainSource) for LL_RCC_PLL_GetMainSource
    stm32l4xx_ll_rcc.o(i.RCC_PLLSAI1_GetFreqDomain_48M) refers to stm32l4xx_ll_rcc.o(i.LL_RCC_MSI_IsEnabledRangeSelect) for LL_RCC_MSI_IsEnabledRangeSelect
    stm32l4xx_ll_rcc.o(i.RCC_PLLSAI1_GetFreqDomain_48M) refers to stm32l4xx_ll_rcc.o(i.LL_RCC_MSI_GetRange) for LL_RCC_MSI_GetRange
    stm32l4xx_ll_rcc.o(i.RCC_PLLSAI1_GetFreqDomain_48M) refers to stm32l4xx_ll_rcc.o(i.LL_RCC_MSI_GetRangeAfterStandby) for LL_RCC_MSI_GetRangeAfterStandby
    stm32l4xx_ll_rcc.o(i.RCC_PLLSAI1_GetFreqDomain_48M) refers to stm32l4xx_ll_rcc.o(i.LL_RCC_PLL_GetDivider) for LL_RCC_PLL_GetDivider
    stm32l4xx_ll_rcc.o(i.RCC_PLLSAI1_GetFreqDomain_48M) refers to stm32l4xx_ll_rcc.o(i.LL_RCC_PLLSAI1_GetN) for LL_RCC_PLLSAI1_GetN
    stm32l4xx_ll_rcc.o(i.RCC_PLLSAI1_GetFreqDomain_48M) refers to system_stm32l4xx.o(.constdata) for MSIRangeTable
    stm32l4xx_ll_rcc.o(i.RCC_PLLSAI1_GetFreqDomain_ADC) refers to stm32l4xx_ll_rcc.o(i.LL_RCC_PLL_GetMainSource) for LL_RCC_PLL_GetMainSource
    stm32l4xx_ll_rcc.o(i.RCC_PLLSAI1_GetFreqDomain_ADC) refers to stm32l4xx_ll_rcc.o(i.LL_RCC_MSI_IsEnabledRangeSelect) for LL_RCC_MSI_IsEnabledRangeSelect
    stm32l4xx_ll_rcc.o(i.RCC_PLLSAI1_GetFreqDomain_ADC) refers to stm32l4xx_ll_rcc.o(i.LL_RCC_MSI_GetRange) for LL_RCC_MSI_GetRange
    stm32l4xx_ll_rcc.o(i.RCC_PLLSAI1_GetFreqDomain_ADC) refers to stm32l4xx_ll_rcc.o(i.LL_RCC_MSI_GetRangeAfterStandby) for LL_RCC_MSI_GetRangeAfterStandby
    stm32l4xx_ll_rcc.o(i.RCC_PLLSAI1_GetFreqDomain_ADC) refers to stm32l4xx_ll_rcc.o(i.LL_RCC_PLL_GetDivider) for LL_RCC_PLL_GetDivider
    stm32l4xx_ll_rcc.o(i.RCC_PLLSAI1_GetFreqDomain_ADC) refers to stm32l4xx_ll_rcc.o(i.LL_RCC_PLLSAI1_GetN) for LL_RCC_PLLSAI1_GetN
    stm32l4xx_ll_rcc.o(i.RCC_PLLSAI1_GetFreqDomain_ADC) refers to system_stm32l4xx.o(.constdata) for MSIRangeTable
    stm32l4xx_ll_rcc.o(i.RCC_PLLSAI1_GetFreqDomain_SAI) refers to stm32l4xx_ll_rcc.o(i.LL_RCC_PLL_GetMainSource) for LL_RCC_PLL_GetMainSource
    stm32l4xx_ll_rcc.o(i.RCC_PLLSAI1_GetFreqDomain_SAI) refers to stm32l4xx_ll_rcc.o(i.LL_RCC_MSI_IsEnabledRangeSelect) for LL_RCC_MSI_IsEnabledRangeSelect
    stm32l4xx_ll_rcc.o(i.RCC_PLLSAI1_GetFreqDomain_SAI) refers to stm32l4xx_ll_rcc.o(i.LL_RCC_MSI_GetRange) for LL_RCC_MSI_GetRange
    stm32l4xx_ll_rcc.o(i.RCC_PLLSAI1_GetFreqDomain_SAI) refers to stm32l4xx_ll_rcc.o(i.LL_RCC_MSI_GetRangeAfterStandby) for LL_RCC_MSI_GetRangeAfterStandby
    stm32l4xx_ll_rcc.o(i.RCC_PLLSAI1_GetFreqDomain_SAI) refers to stm32l4xx_ll_rcc.o(i.LL_RCC_PLL_GetDivider) for LL_RCC_PLL_GetDivider
    stm32l4xx_ll_rcc.o(i.RCC_PLLSAI1_GetFreqDomain_SAI) refers to stm32l4xx_ll_rcc.o(i.LL_RCC_PLLSAI1_GetN) for LL_RCC_PLLSAI1_GetN
    stm32l4xx_ll_rcc.o(i.RCC_PLLSAI1_GetFreqDomain_SAI) refers to system_stm32l4xx.o(.constdata) for MSIRangeTable
    stm32l4xx_ll_rcc.o(i.RCC_PLLSAI2_GetFreqDomain_ADC) refers to stm32l4xx_ll_rcc.o(i.LL_RCC_PLL_GetMainSource) for LL_RCC_PLL_GetMainSource
    stm32l4xx_ll_rcc.o(i.RCC_PLLSAI2_GetFreqDomain_ADC) refers to stm32l4xx_ll_rcc.o(i.LL_RCC_MSI_IsEnabledRangeSelect) for LL_RCC_MSI_IsEnabledRangeSelect
    stm32l4xx_ll_rcc.o(i.RCC_PLLSAI2_GetFreqDomain_ADC) refers to stm32l4xx_ll_rcc.o(i.LL_RCC_MSI_GetRange) for LL_RCC_MSI_GetRange
    stm32l4xx_ll_rcc.o(i.RCC_PLLSAI2_GetFreqDomain_ADC) refers to stm32l4xx_ll_rcc.o(i.LL_RCC_MSI_GetRangeAfterStandby) for LL_RCC_MSI_GetRangeAfterStandby
    stm32l4xx_ll_rcc.o(i.RCC_PLLSAI2_GetFreqDomain_ADC) refers to stm32l4xx_ll_rcc.o(i.LL_RCC_PLL_GetDivider) for LL_RCC_PLL_GetDivider
    stm32l4xx_ll_rcc.o(i.RCC_PLLSAI2_GetFreqDomain_ADC) refers to stm32l4xx_ll_rcc.o(i.LL_RCC_PLLSAI2_GetN) for LL_RCC_PLLSAI2_GetN
    stm32l4xx_ll_rcc.o(i.RCC_PLLSAI2_GetFreqDomain_ADC) refers to system_stm32l4xx.o(.constdata) for MSIRangeTable
    stm32l4xx_ll_rcc.o(i.RCC_PLLSAI2_GetFreqDomain_SAI) refers to stm32l4xx_ll_rcc.o(i.LL_RCC_PLL_GetMainSource) for LL_RCC_PLL_GetMainSource
    stm32l4xx_ll_rcc.o(i.RCC_PLLSAI2_GetFreqDomain_SAI) refers to stm32l4xx_ll_rcc.o(i.LL_RCC_MSI_IsEnabledRangeSelect) for LL_RCC_MSI_IsEnabledRangeSelect
    stm32l4xx_ll_rcc.o(i.RCC_PLLSAI2_GetFreqDomain_SAI) refers to stm32l4xx_ll_rcc.o(i.LL_RCC_MSI_GetRange) for LL_RCC_MSI_GetRange
    stm32l4xx_ll_rcc.o(i.RCC_PLLSAI2_GetFreqDomain_SAI) refers to stm32l4xx_ll_rcc.o(i.LL_RCC_MSI_GetRangeAfterStandby) for LL_RCC_MSI_GetRangeAfterStandby
    stm32l4xx_ll_rcc.o(i.RCC_PLLSAI2_GetFreqDomain_SAI) refers to stm32l4xx_ll_rcc.o(i.LL_RCC_PLL_GetDivider) for LL_RCC_PLL_GetDivider
    stm32l4xx_ll_rcc.o(i.RCC_PLLSAI2_GetFreqDomain_SAI) refers to stm32l4xx_ll_rcc.o(i.LL_RCC_PLLSAI2_GetN) for LL_RCC_PLLSAI2_GetN
    stm32l4xx_ll_rcc.o(i.RCC_PLLSAI2_GetFreqDomain_SAI) refers to system_stm32l4xx.o(.constdata) for MSIRangeTable
    stm32l4xx_ll_rcc.o(i.RCC_PLL_GetFreqDomain_48M) refers to stm32l4xx_ll_rcc.o(i.LL_RCC_PLL_GetMainSource) for LL_RCC_PLL_GetMainSource
    stm32l4xx_ll_rcc.o(i.RCC_PLL_GetFreqDomain_48M) refers to stm32l4xx_ll_rcc.o(i.LL_RCC_MSI_IsEnabledRangeSelect) for LL_RCC_MSI_IsEnabledRangeSelect
    stm32l4xx_ll_rcc.o(i.RCC_PLL_GetFreqDomain_48M) refers to stm32l4xx_ll_rcc.o(i.LL_RCC_MSI_GetRange) for LL_RCC_MSI_GetRange
    stm32l4xx_ll_rcc.o(i.RCC_PLL_GetFreqDomain_48M) refers to stm32l4xx_ll_rcc.o(i.LL_RCC_MSI_GetRangeAfterStandby) for LL_RCC_MSI_GetRangeAfterStandby
    stm32l4xx_ll_rcc.o(i.RCC_PLL_GetFreqDomain_48M) refers to stm32l4xx_ll_rcc.o(i.LL_RCC_PLL_GetDivider) for LL_RCC_PLL_GetDivider
    stm32l4xx_ll_rcc.o(i.RCC_PLL_GetFreqDomain_48M) refers to stm32l4xx_ll_rcc.o(i.LL_RCC_PLL_GetN) for LL_RCC_PLL_GetN
    stm32l4xx_ll_rcc.o(i.RCC_PLL_GetFreqDomain_48M) refers to system_stm32l4xx.o(.constdata) for MSIRangeTable
    stm32l4xx_ll_rcc.o(i.RCC_PLL_GetFreqDomain_SAI) refers to stm32l4xx_ll_rcc.o(i.LL_RCC_PLL_GetMainSource) for LL_RCC_PLL_GetMainSource
    stm32l4xx_ll_rcc.o(i.RCC_PLL_GetFreqDomain_SAI) refers to stm32l4xx_ll_rcc.o(i.LL_RCC_MSI_IsEnabledRangeSelect) for LL_RCC_MSI_IsEnabledRangeSelect
    stm32l4xx_ll_rcc.o(i.RCC_PLL_GetFreqDomain_SAI) refers to stm32l4xx_ll_rcc.o(i.LL_RCC_MSI_GetRange) for LL_RCC_MSI_GetRange
    stm32l4xx_ll_rcc.o(i.RCC_PLL_GetFreqDomain_SAI) refers to stm32l4xx_ll_rcc.o(i.LL_RCC_MSI_GetRangeAfterStandby) for LL_RCC_MSI_GetRangeAfterStandby
    stm32l4xx_ll_rcc.o(i.RCC_PLL_GetFreqDomain_SAI) refers to stm32l4xx_ll_rcc.o(i.LL_RCC_PLL_GetDivider) for LL_RCC_PLL_GetDivider
    stm32l4xx_ll_rcc.o(i.RCC_PLL_GetFreqDomain_SAI) refers to stm32l4xx_ll_rcc.o(i.LL_RCC_PLL_GetN) for LL_RCC_PLL_GetN
    stm32l4xx_ll_rcc.o(i.RCC_PLL_GetFreqDomain_SAI) refers to system_stm32l4xx.o(.constdata) for MSIRangeTable
    stm32l4xx_ll_rcc.o(i.RCC_PLL_GetFreqDomain_SYS) refers to stm32l4xx_ll_rcc.o(i.LL_RCC_PLL_GetMainSource) for LL_RCC_PLL_GetMainSource
    stm32l4xx_ll_rcc.o(i.RCC_PLL_GetFreqDomain_SYS) refers to stm32l4xx_ll_rcc.o(i.LL_RCC_MSI_IsEnabledRangeSelect) for LL_RCC_MSI_IsEnabledRangeSelect
    stm32l4xx_ll_rcc.o(i.RCC_PLL_GetFreqDomain_SYS) refers to stm32l4xx_ll_rcc.o(i.LL_RCC_MSI_GetRange) for LL_RCC_MSI_GetRange
    stm32l4xx_ll_rcc.o(i.RCC_PLL_GetFreqDomain_SYS) refers to stm32l4xx_ll_rcc.o(i.LL_RCC_MSI_GetRangeAfterStandby) for LL_RCC_MSI_GetRangeAfterStandby
    stm32l4xx_ll_rcc.o(i.RCC_PLL_GetFreqDomain_SYS) refers to stm32l4xx_ll_rcc.o(i.LL_RCC_PLL_GetDivider) for LL_RCC_PLL_GetDivider
    stm32l4xx_ll_rcc.o(i.RCC_PLL_GetFreqDomain_SYS) refers to stm32l4xx_ll_rcc.o(i.LL_RCC_PLL_GetN) for LL_RCC_PLL_GetN
    stm32l4xx_ll_rcc.o(i.RCC_PLL_GetFreqDomain_SYS) refers to system_stm32l4xx.o(.constdata) for MSIRangeTable
    stm32l4xx_ll_gpio.o(i.LL_GPIO_DeInit) refers to stm32l4xx_ll_gpio.o(i.LL_AHB2_GRP1_ForceReset) for LL_AHB2_GRP1_ForceReset
    stm32l4xx_ll_gpio.o(i.LL_GPIO_DeInit) refers to stm32l4xx_ll_gpio.o(i.LL_AHB2_GRP1_ReleaseReset) for LL_AHB2_GRP1_ReleaseReset
    stm32l4xx_ll_exti.o(i.LL_EXTI_Init) refers to stm32l4xx_ll_exti.o(i.LL_EXTI_DisableEvent_0_31) for LL_EXTI_DisableEvent_0_31
    stm32l4xx_ll_exti.o(i.LL_EXTI_Init) refers to stm32l4xx_ll_exti.o(i.LL_EXTI_EnableIT_0_31) for LL_EXTI_EnableIT_0_31
    stm32l4xx_ll_exti.o(i.LL_EXTI_Init) refers to stm32l4xx_ll_exti.o(i.LL_EXTI_DisableIT_0_31) for LL_EXTI_DisableIT_0_31
    stm32l4xx_ll_exti.o(i.LL_EXTI_Init) refers to stm32l4xx_ll_exti.o(i.LL_EXTI_EnableEvent_0_31) for LL_EXTI_EnableEvent_0_31
    stm32l4xx_ll_exti.o(i.LL_EXTI_Init) refers to stm32l4xx_ll_exti.o(i.LL_EXTI_EnableRisingTrig_0_31) for LL_EXTI_EnableRisingTrig_0_31
    stm32l4xx_ll_exti.o(i.LL_EXTI_Init) refers to stm32l4xx_ll_exti.o(i.LL_EXTI_EnableFallingTrig_0_31) for LL_EXTI_EnableFallingTrig_0_31
    stm32l4xx_ll_exti.o(i.LL_EXTI_Init) refers to stm32l4xx_ll_exti.o(i.LL_EXTI_DisableEvent_32_63) for LL_EXTI_DisableEvent_32_63
    stm32l4xx_ll_exti.o(i.LL_EXTI_Init) refers to stm32l4xx_ll_exti.o(i.LL_EXTI_EnableIT_32_63) for LL_EXTI_EnableIT_32_63
    stm32l4xx_ll_exti.o(i.LL_EXTI_Init) refers to stm32l4xx_ll_exti.o(i.LL_EXTI_DisableIT_32_63) for LL_EXTI_DisableIT_32_63
    stm32l4xx_ll_exti.o(i.LL_EXTI_Init) refers to stm32l4xx_ll_exti.o(i.LL_EXTI_EnableEvent_32_63) for LL_EXTI_EnableEvent_32_63
    stm32l4xx_ll_exti.o(i.LL_EXTI_Init) refers to stm32l4xx_ll_exti.o(i.LL_EXTI_EnableRisingTrig_32_63) for LL_EXTI_EnableRisingTrig_32_63
    stm32l4xx_ll_exti.o(i.LL_EXTI_Init) refers to stm32l4xx_ll_exti.o(i.LL_EXTI_EnableFallingTrig_32_63) for LL_EXTI_EnableFallingTrig_32_63
    stm32l4xx_ll_utils.o(i.LL_PLL_ConfigSystemClock_HSE) refers to stm32l4xx_ll_utils.o(i.UTILS_PLL_IsBusy) for UTILS_PLL_IsBusy
    stm32l4xx_ll_utils.o(i.LL_PLL_ConfigSystemClock_HSE) refers to stm32l4xx_ll_utils.o(i.UTILS_GetPLLOutputFrequency) for UTILS_GetPLLOutputFrequency
    stm32l4xx_ll_utils.o(i.LL_PLL_ConfigSystemClock_HSE) refers to stm32l4xx_ll_utils.o(i.LL_RCC_HSE_IsReady) for LL_RCC_HSE_IsReady
    stm32l4xx_ll_utils.o(i.LL_PLL_ConfigSystemClock_HSE) refers to stm32l4xx_ll_utils.o(i.LL_RCC_PLL_ConfigDomain_SYS) for LL_RCC_PLL_ConfigDomain_SYS
    stm32l4xx_ll_utils.o(i.LL_PLL_ConfigSystemClock_HSE) refers to stm32l4xx_ll_utils.o(i.UTILS_EnablePLLAndSwitchSystem) for UTILS_EnablePLLAndSwitchSystem
    stm32l4xx_ll_utils.o(i.LL_PLL_ConfigSystemClock_HSI) refers to stm32l4xx_ll_utils.o(i.UTILS_PLL_IsBusy) for UTILS_PLL_IsBusy
    stm32l4xx_ll_utils.o(i.LL_PLL_ConfigSystemClock_HSI) refers to stm32l4xx_ll_utils.o(i.UTILS_GetPLLOutputFrequency) for UTILS_GetPLLOutputFrequency
    stm32l4xx_ll_utils.o(i.LL_PLL_ConfigSystemClock_HSI) refers to stm32l4xx_ll_utils.o(i.LL_RCC_HSI_IsReady) for LL_RCC_HSI_IsReady
    stm32l4xx_ll_utils.o(i.LL_PLL_ConfigSystemClock_HSI) refers to stm32l4xx_ll_utils.o(i.LL_RCC_PLL_ConfigDomain_SYS) for LL_RCC_PLL_ConfigDomain_SYS
    stm32l4xx_ll_utils.o(i.LL_PLL_ConfigSystemClock_HSI) refers to stm32l4xx_ll_utils.o(i.UTILS_EnablePLLAndSwitchSystem) for UTILS_EnablePLLAndSwitchSystem
    stm32l4xx_ll_utils.o(i.LL_PLL_ConfigSystemClock_MSI) refers to stm32l4xx_ll_utils.o(i.UTILS_PLL_IsBusy) for UTILS_PLL_IsBusy
    stm32l4xx_ll_utils.o(i.LL_PLL_ConfigSystemClock_MSI) refers to stm32l4xx_ll_utils.o(i.LL_RCC_MSI_IsEnabledRangeSelect) for LL_RCC_MSI_IsEnabledRangeSelect
    stm32l4xx_ll_utils.o(i.LL_PLL_ConfigSystemClock_MSI) refers to stm32l4xx_ll_utils.o(i.UTILS_GetPLLOutputFrequency) for UTILS_GetPLLOutputFrequency
    stm32l4xx_ll_utils.o(i.LL_PLL_ConfigSystemClock_MSI) refers to stm32l4xx_ll_utils.o(i.LL_RCC_MSI_IsReady) for LL_RCC_MSI_IsReady
    stm32l4xx_ll_utils.o(i.LL_PLL_ConfigSystemClock_MSI) refers to stm32l4xx_ll_utils.o(i.LL_RCC_PLL_ConfigDomain_SYS) for LL_RCC_PLL_ConfigDomain_SYS
    stm32l4xx_ll_utils.o(i.LL_PLL_ConfigSystemClock_MSI) refers to stm32l4xx_ll_utils.o(i.UTILS_EnablePLLAndSwitchSystem) for UTILS_EnablePLLAndSwitchSystem
    stm32l4xx_ll_utils.o(i.LL_PLL_ConfigSystemClock_MSI) refers to system_stm32l4xx.o(.constdata) for MSIRangeTable
    stm32l4xx_ll_utils.o(i.LL_SetSystemCoreClock) refers to system_stm32l4xx.o(.data) for SystemCoreClock
    stm32l4xx_ll_utils.o(i.UTILS_EnablePLLAndSwitchSystem) refers to stm32l4xx_ll_utils.o(i.LL_SetFlashLatency) for LL_SetFlashLatency
    stm32l4xx_ll_utils.o(i.UTILS_EnablePLLAndSwitchSystem) refers to stm32l4xx_ll_utils.o(i.LL_RCC_PLL_IsReady) for LL_RCC_PLL_IsReady
    stm32l4xx_ll_utils.o(i.UTILS_EnablePLLAndSwitchSystem) refers to stm32l4xx_ll_utils.o(i.LL_SetSystemCoreClock) for LL_SetSystemCoreClock
    stm32l4xx_ll_utils.o(i.UTILS_EnablePLLAndSwitchSystem) refers to system_stm32l4xx.o(.constdata) for AHBPrescTable
    stm32l4xx_ll_utils.o(i.UTILS_EnablePLLAndSwitchSystem) refers to system_stm32l4xx.o(.data) for SystemCoreClock
    stm32l4xx_ll_utils.o(i.UTILS_PLL_IsBusy) refers to stm32l4xx_ll_utils.o(i.LL_RCC_PLL_IsReady) for LL_RCC_PLL_IsReady
    system_stm32l4xx.o(i.SystemCoreClockUpdate) refers to system_stm32l4xx.o(.constdata) for MSIRangeTable
    system_stm32l4xx.o(i.SystemCoreClockUpdate) refers to system_stm32l4xx.o(.data) for SystemCoreClock
    lr11xx_bootloader.o(i.lr11xx_bootloader_clear_reset_status_info) refers to lr11xx_hal.o(i.lr11xx_hal_write) for lr11xx_hal_write
    lr11xx_bootloader.o(i.lr11xx_bootloader_erase_flash) refers to lr11xx_hal.o(i.lr11xx_hal_write) for lr11xx_hal_write
    lr11xx_bootloader.o(i.lr11xx_bootloader_get_status) refers to lr11xx_hal.o(i.lr11xx_hal_direct_read) for lr11xx_hal_direct_read
    lr11xx_bootloader.o(i.lr11xx_bootloader_get_version) refers to lr11xx_hal.o(i.lr11xx_hal_read) for lr11xx_hal_read
    lr11xx_bootloader.o(i.lr11xx_bootloader_read_chip_eui) refers to lr11xx_hal.o(i.lr11xx_hal_read) for lr11xx_hal_read
    lr11xx_bootloader.o(i.lr11xx_bootloader_read_join_eui) refers to lr11xx_hal.o(i.lr11xx_hal_read) for lr11xx_hal_read
    lr11xx_bootloader.o(i.lr11xx_bootloader_read_pin) refers to lr11xx_hal.o(i.lr11xx_hal_read) for lr11xx_hal_read
    lr11xx_bootloader.o(i.lr11xx_bootloader_reboot) refers to lr11xx_hal.o(i.lr11xx_hal_write) for lr11xx_hal_write
    lr11xx_bootloader.o(i.lr11xx_bootloader_write_flash_encrypted) refers to memseta.o(.text) for __aeabi_memclr4
    lr11xx_bootloader.o(i.lr11xx_bootloader_write_flash_encrypted) refers to lr11xx_hal.o(i.lr11xx_hal_write) for lr11xx_hal_write
    lr11xx_bootloader.o(i.lr11xx_bootloader_write_flash_encrypted_full) refers to lr11xx_bootloader.o(i.lr11xx_bootloader_get_min_from_operand_and_max_block_size) for lr11xx_bootloader_get_min_from_operand_and_max_block_size
    lr11xx_bootloader.o(i.lr11xx_bootloader_write_flash_encrypted_full) refers to lr11xx_bootloader.o(i.lr11xx_bootloader_write_flash_encrypted) for lr11xx_bootloader_write_flash_encrypted
    lr11xx_crypto_engine.o(i.lr11xx_crypto_aes_decrypt) refers to memseta.o(.text) for __aeabi_memclr4
    lr11xx_crypto_engine.o(i.lr11xx_crypto_aes_decrypt) refers to lr11xx_crypto_engine.o(i.lr11xx_crypto_fill_cbuffer_opcode_key_data) for lr11xx_crypto_fill_cbuffer_opcode_key_data
    lr11xx_crypto_engine.o(i.lr11xx_crypto_aes_decrypt) refers to lr11xx_hal.o(i.lr11xx_hal_read) for lr11xx_hal_read
    lr11xx_crypto_engine.o(i.lr11xx_crypto_aes_encrypt) refers to memseta.o(.text) for __aeabi_memclr4
    lr11xx_crypto_engine.o(i.lr11xx_crypto_aes_encrypt) refers to lr11xx_crypto_engine.o(i.lr11xx_crypto_fill_cbuffer_opcode_key_data) for lr11xx_crypto_fill_cbuffer_opcode_key_data
    lr11xx_crypto_engine.o(i.lr11xx_crypto_aes_encrypt) refers to lr11xx_hal.o(i.lr11xx_hal_read) for lr11xx_hal_read
    lr11xx_crypto_engine.o(i.lr11xx_crypto_aes_encrypt_01) refers to memseta.o(.text) for __aeabi_memclr4
    lr11xx_crypto_engine.o(i.lr11xx_crypto_aes_encrypt_01) refers to lr11xx_crypto_engine.o(i.lr11xx_crypto_fill_cbuffer_opcode_key_data) for lr11xx_crypto_fill_cbuffer_opcode_key_data
    lr11xx_crypto_engine.o(i.lr11xx_crypto_aes_encrypt_01) refers to lr11xx_hal.o(i.lr11xx_hal_read) for lr11xx_hal_read
    lr11xx_crypto_engine.o(i.lr11xx_crypto_check_encrypted_firmware_image) refers to memseta.o(.text) for __aeabi_memclr4
    lr11xx_crypto_engine.o(i.lr11xx_crypto_check_encrypted_firmware_image) refers to lr11xx_hal.o(i.lr11xx_hal_write) for lr11xx_hal_write
    lr11xx_crypto_engine.o(i.lr11xx_crypto_check_encrypted_firmware_image_full) refers to lr11xx_crypto_engine.o(i.lr11xx_crypto_get_min_from_operand_and_max_block_size) for lr11xx_crypto_get_min_from_operand_and_max_block_size
    lr11xx_crypto_engine.o(i.lr11xx_crypto_check_encrypted_firmware_image_full) refers to lr11xx_crypto_engine.o(i.lr11xx_crypto_check_encrypted_firmware_image) for lr11xx_crypto_check_encrypted_firmware_image
    lr11xx_crypto_engine.o(i.lr11xx_crypto_compute_aes_cmac) refers to memseta.o(.text) for __aeabi_memclr4
    lr11xx_crypto_engine.o(i.lr11xx_crypto_compute_aes_cmac) refers to lr11xx_crypto_engine.o(i.lr11xx_crypto_fill_cbuffer_opcode_key_data) for lr11xx_crypto_fill_cbuffer_opcode_key_data
    lr11xx_crypto_engine.o(i.lr11xx_crypto_compute_aes_cmac) refers to lr11xx_hal.o(i.lr11xx_hal_read) for lr11xx_hal_read
    lr11xx_crypto_engine.o(i.lr11xx_crypto_derive_key) refers to memseta.o(.text) for __aeabi_memclr4
    lr11xx_crypto_engine.o(i.lr11xx_crypto_derive_key) refers to lr11xx_hal.o(i.lr11xx_hal_read) for lr11xx_hal_read
    lr11xx_crypto_engine.o(i.lr11xx_crypto_get_check_encrypted_firmware_image_result) refers to lr11xx_hal.o(i.lr11xx_hal_read) for lr11xx_hal_read
    lr11xx_crypto_engine.o(i.lr11xx_crypto_get_parameter) refers to lr11xx_hal.o(i.lr11xx_hal_read) for lr11xx_hal_read
    lr11xx_crypto_engine.o(i.lr11xx_crypto_process_join_accept) refers to memseta.o(.text) for __aeabi_memclr4
    lr11xx_crypto_engine.o(i.lr11xx_crypto_process_join_accept) refers to lr11xx_hal.o(i.lr11xx_hal_read) for lr11xx_hal_read
    lr11xx_crypto_engine.o(i.lr11xx_crypto_restore_from_flash) refers to lr11xx_hal.o(i.lr11xx_hal_read) for lr11xx_hal_read
    lr11xx_crypto_engine.o(i.lr11xx_crypto_select) refers to lr11xx_hal.o(i.lr11xx_hal_write) for lr11xx_hal_write
    lr11xx_crypto_engine.o(i.lr11xx_crypto_set_key) refers to memseta.o(.text) for __aeabi_memclr4
    lr11xx_crypto_engine.o(i.lr11xx_crypto_set_key) refers to lr11xx_hal.o(i.lr11xx_hal_read) for lr11xx_hal_read
    lr11xx_crypto_engine.o(i.lr11xx_crypto_set_parameter) refers to lr11xx_hal.o(i.lr11xx_hal_read) for lr11xx_hal_read
    lr11xx_crypto_engine.o(i.lr11xx_crypto_store_to_flash) refers to lr11xx_hal.o(i.lr11xx_hal_read) for lr11xx_hal_read
    lr11xx_crypto_engine.o(i.lr11xx_crypto_verify_aes_cmac) refers to memseta.o(.text) for __aeabi_memclr4
    lr11xx_crypto_engine.o(i.lr11xx_crypto_verify_aes_cmac) refers to lr11xx_hal.o(i.lr11xx_hal_read) for lr11xx_hal_read
    lr11xx_gnss.o(i.lr11xx_gnss_almanac_update) refers to lr11xx_gnss.o(i.lr11xx_gnss_get_min_from_operand_and_max_nb_of_blocks) for lr11xx_gnss_get_min_from_operand_and_max_nb_of_blocks
    lr11xx_gnss.o(i.lr11xx_gnss_almanac_update) refers to lr11xx_hal.o(i.lr11xx_hal_write) for lr11xx_hal_write
    lr11xx_gnss.o(i.lr11xx_gnss_almanac_update_from_sat) refers to lr11xx_hal.o(i.lr11xx_hal_write) for lr11xx_hal_write
    lr11xx_gnss.o(i.lr11xx_gnss_compute_power_consumption) refers to f2d.o(.text) for __aeabi_f2d
    lr11xx_gnss.o(i.lr11xx_gnss_compute_power_consumption) refers to ddiv.o(.text) for __aeabi_ddiv
    lr11xx_gnss.o(i.lr11xx_gnss_compute_power_consumption) refers to dmul.o(.text) for __aeabi_dmul
    lr11xx_gnss.o(i.lr11xx_gnss_compute_power_consumption) refers to d2f.o(.text) for __aeabi_d2f
    lr11xx_gnss.o(i.lr11xx_gnss_compute_power_consumption) refers to dadd.o(.text) for __aeabi_dadd
    lr11xx_gnss.o(i.lr11xx_gnss_compute_power_consumption) refers to dfltui.o(.text) for __aeabi_ui2d
    lr11xx_gnss.o(i.lr11xx_gnss_config_almanac_update_period) refers to lr11xx_hal.o(i.lr11xx_hal_write) for lr11xx_hal_write
    lr11xx_gnss.o(i.lr11xx_gnss_config_delay_reset_assistance_position) refers to lr11xx_hal.o(i.lr11xx_hal_write) for lr11xx_hal_write
    lr11xx_gnss.o(i.lr11xx_gnss_fetch_time) refers to lr11xx_hal.o(i.lr11xx_hal_write) for lr11xx_hal_write
    lr11xx_gnss.o(i.lr11xx_gnss_get_almanac_address_size) refers to lr11xx_hal.o(i.lr11xx_hal_read) for lr11xx_hal_read
    lr11xx_gnss.o(i.lr11xx_gnss_get_almanac_address_size) refers to lr11xx_gnss.o(i.lr11xx_gnss_uint8_to_uint32) for lr11xx_gnss_uint8_to_uint32
    lr11xx_gnss.o(i.lr11xx_gnss_get_almanac_age_for_satellite) refers to lr11xx_gnss.o(i.lr11xx_gnss_get_almanac_address_size) for lr11xx_gnss_get_almanac_address_size
    lr11xx_gnss.o(i.lr11xx_gnss_get_almanac_age_for_satellite) refers to lr11xx_regmem.o(i.lr11xx_regmem_read_mem8) for lr11xx_regmem_read_mem8
    lr11xx_gnss.o(i.lr11xx_gnss_get_context_status) refers to lr11xx_hal.o(i.lr11xx_hal_read) for lr11xx_hal_read
    lr11xx_gnss.o(i.lr11xx_gnss_get_detected_satellites) refers to memseta.o(.text) for __aeabi_memclr4
    lr11xx_gnss.o(i.lr11xx_gnss_get_detected_satellites) refers to lr11xx_hal.o(i.lr11xx_hal_read) for lr11xx_hal_read
    lr11xx_gnss.o(i.lr11xx_gnss_get_nb_detected_satellites) refers to lr11xx_hal.o(i.lr11xx_hal_read) for lr11xx_hal_read
    lr11xx_gnss.o(i.lr11xx_gnss_get_nb_visible_satellites) refers to lr11xx_hal.o(i.lr11xx_hal_read) for lr11xx_hal_read
    lr11xx_gnss.o(i.lr11xx_gnss_get_result_size) refers to lr11xx_hal.o(i.lr11xx_hal_read) for lr11xx_hal_read
    lr11xx_gnss.o(i.lr11xx_gnss_get_sv_sync) refers to lr11xx_hal.o(i.lr11xx_hal_read) for lr11xx_hal_read
    lr11xx_gnss.o(i.lr11xx_gnss_get_visible_satellites) refers to memseta.o(.text) for __aeabi_memclr4
    lr11xx_gnss.o(i.lr11xx_gnss_get_visible_satellites) refers to lr11xx_hal.o(i.lr11xx_hal_read) for lr11xx_hal_read
    lr11xx_gnss.o(i.lr11xx_gnss_push_dmc_msg) refers to lr11xx_hal.o(i.lr11xx_hal_write) for lr11xx_hal_write
    lr11xx_gnss.o(i.lr11xx_gnss_push_solver_msg) refers to lr11xx_hal.o(i.lr11xx_hal_write) for lr11xx_hal_write
    lr11xx_gnss.o(i.lr11xx_gnss_read_almanac) refers to lr11xx_gnss.o(i.lr11xx_gnss_get_almanac_address_size) for lr11xx_gnss_get_almanac_address_size
    lr11xx_gnss.o(i.lr11xx_gnss_read_almanac) refers to memseta.o(.text) for __aeabi_memclr4
    lr11xx_gnss.o(i.lr11xx_gnss_read_almanac) refers to lr11xx_regmem.o(i.lr11xx_regmem_read_regmem32) for lr11xx_regmem_read_regmem32
    lr11xx_gnss.o(i.lr11xx_gnss_read_almanac_per_satellites) refers to lr11xx_hal.o(i.lr11xx_hal_read) for lr11xx_hal_read
    lr11xx_gnss.o(i.lr11xx_gnss_read_almanac_status) refers to memseta.o(.text) for __aeabi_memclr4
    lr11xx_gnss.o(i.lr11xx_gnss_read_almanac_status) refers to lr11xx_hal.o(i.lr11xx_hal_read) for lr11xx_hal_read
    lr11xx_gnss.o(i.lr11xx_gnss_read_almanac_status) refers to lr11xx_gnss.o(i.lr11xx_gnss_uint8_to_uint32) for lr11xx_gnss_uint8_to_uint32
    lr11xx_gnss.o(i.lr11xx_gnss_read_almanac_update) refers to lr11xx_hal.o(i.lr11xx_hal_read) for lr11xx_hal_read
    lr11xx_gnss.o(i.lr11xx_gnss_read_almanac_update_period) refers to lr11xx_hal.o(i.lr11xx_hal_read) for lr11xx_hal_read
    lr11xx_gnss.o(i.lr11xx_gnss_read_assistance_position) refers to lr11xx_hal.o(i.lr11xx_hal_read) for lr11xx_hal_read
    lr11xx_gnss.o(i.lr11xx_gnss_read_cumulative_timing) refers to memseta.o(.text) for __aeabi_memclr4
    lr11xx_gnss.o(i.lr11xx_gnss_read_cumulative_timing) refers to lr11xx_hal.o(i.lr11xx_hal_read) for lr11xx_hal_read
    lr11xx_gnss.o(i.lr11xx_gnss_read_cumulative_timing) refers to lr11xx_gnss.o(i.lr11xx_gnss_uint8_to_uint32) for lr11xx_gnss_uint8_to_uint32
    lr11xx_gnss.o(i.lr11xx_gnss_read_delay_reset_assistance_position) refers to lr11xx_hal.o(i.lr11xx_hal_read) for lr11xx_hal_read
    lr11xx_gnss.o(i.lr11xx_gnss_read_demod_status) refers to lr11xx_hal.o(i.lr11xx_hal_read) for lr11xx_hal_read
    lr11xx_gnss.o(i.lr11xx_gnss_read_doppler_solver_result) refers to memseta.o(.text) for __aeabi_memclr4
    lr11xx_gnss.o(i.lr11xx_gnss_read_doppler_solver_result) refers to lr11xx_hal.o(i.lr11xx_hal_read) for lr11xx_hal_read
    lr11xx_gnss.o(i.lr11xx_gnss_read_firmware_version) refers to lr11xx_hal.o(i.lr11xx_hal_read) for lr11xx_hal_read
    lr11xx_gnss.o(i.lr11xx_gnss_read_freq_search_space) refers to lr11xx_hal.o(i.lr11xx_hal_read) for lr11xx_hal_read
    lr11xx_gnss.o(i.lr11xx_gnss_read_gnss_rssi_test) refers to lr11xx_hal.o(i.lr11xx_hal_read) for lr11xx_hal_read
    lr11xx_gnss.o(i.lr11xx_gnss_read_keep_sync_status) refers to lr11xx_hal.o(i.lr11xx_hal_read) for lr11xx_hal_read
    lr11xx_gnss.o(i.lr11xx_gnss_read_keep_sync_status) refers to lr11xx_gnss.o(i.lr11xx_gnss_uint8_to_uint32) for lr11xx_gnss_uint8_to_uint32
    lr11xx_gnss.o(i.lr11xx_gnss_read_last_scan_mode_launched) refers to lr11xx_hal.o(i.lr11xx_hal_read) for lr11xx_hal_read
    lr11xx_gnss.o(i.lr11xx_gnss_read_results) refers to lr11xx_hal.o(i.lr11xx_hal_read) for lr11xx_hal_read
    lr11xx_gnss.o(i.lr11xx_gnss_read_supported_constellations) refers to lr11xx_hal.o(i.lr11xx_hal_read) for lr11xx_hal_read
    lr11xx_gnss.o(i.lr11xx_gnss_read_time) refers to lr11xx_hal.o(i.lr11xx_hal_read) for lr11xx_hal_read
    lr11xx_gnss.o(i.lr11xx_gnss_read_time) refers to lr11xx_gnss.o(i.lr11xx_gnss_uint8_to_uint32) for lr11xx_gnss_uint8_to_uint32
    lr11xx_gnss.o(i.lr11xx_gnss_read_used_constellations) refers to lr11xx_hal.o(i.lr11xx_hal_read) for lr11xx_hal_read
    lr11xx_gnss.o(i.lr11xx_gnss_read_week_number_rollover) refers to lr11xx_hal.o(i.lr11xx_hal_read) for lr11xx_hal_read
    lr11xx_gnss.o(i.lr11xx_gnss_reset_position) refers to lr11xx_hal.o(i.lr11xx_hal_write) for lr11xx_hal_write
    lr11xx_gnss.o(i.lr11xx_gnss_reset_time) refers to lr11xx_hal.o(i.lr11xx_hal_write) for lr11xx_hal_write
    lr11xx_gnss.o(i.lr11xx_gnss_scan) refers to lr11xx_hal.o(i.lr11xx_hal_write) for lr11xx_hal_write
    lr11xx_gnss.o(i.lr11xx_gnss_set_almanac_update) refers to lr11xx_hal.o(i.lr11xx_hal_write) for lr11xx_hal_write
    lr11xx_gnss.o(i.lr11xx_gnss_set_assistance_position) refers to lr11xx_hal.o(i.lr11xx_hal_write) for lr11xx_hal_write
    lr11xx_gnss.o(i.lr11xx_gnss_set_beidou_bit_mask_sat_activated) refers to lr11xx_hal.o(i.lr11xx_hal_write) for lr11xx_hal_write
    lr11xx_gnss.o(i.lr11xx_gnss_set_constellations_to_use) refers to lr11xx_hal.o(i.lr11xx_hal_write) for lr11xx_hal_write
    lr11xx_gnss.o(i.lr11xx_gnss_set_freq_search_space) refers to lr11xx_hal.o(i.lr11xx_hal_write) for lr11xx_hal_write
    lr11xx_gnss.o(i.lr11xx_gnss_set_gps_bit_mask_sat_activated) refers to lr11xx_hal.o(i.lr11xx_hal_write) for lr11xx_hal_write
    lr11xx_gnss.o(i.lr11xx_gnss_set_scan_mode) refers to lr11xx_hal.o(i.lr11xx_hal_write) for lr11xx_hal_write
    lr11xx_gnss.o(i.lr11xx_gnss_set_time) refers to lr11xx_hal.o(i.lr11xx_hal_write) for lr11xx_hal_write
    lr11xx_lr_fhss.o(i.lr11xx_lr_fhss_build_frame) refers to lr11xx_radio.o(i.lr11xx_radio_set_lr_fhss_sync_word) for lr11xx_radio_set_lr_fhss_sync_word
    lr11xx_lr_fhss.o(i.lr11xx_lr_fhss_build_frame) refers to lr11xx_hal.o(i.lr11xx_hal_write) for lr11xx_hal_write
    lr11xx_lr_fhss.o(i.lr11xx_lr_fhss_get_bit_delay_in_us) refers to lr11xx_lr_fhss.o(i.lr11xx_lr_fhss_get_nb_bits) for lr11xx_lr_fhss_get_nb_bits
    lr11xx_lr_fhss.o(i.lr11xx_lr_fhss_get_time_on_air_in_ms) refers to lr11xx_lr_fhss.o(i.lr11xx_lr_fhss_get_nb_bits) for lr11xx_lr_fhss_get_nb_bits
    lr11xx_lr_fhss.o(i.lr11xx_lr_fhss_init) refers to lr11xx_radio.o(i.lr11xx_radio_set_pkt_type) for lr11xx_radio_set_pkt_type
    lr11xx_lr_fhss.o(i.lr11xx_lr_fhss_init) refers to lr11xx_radio.o(i.lr11xx_radio_set_lr_fhss_mod_params) for lr11xx_radio_set_lr_fhss_mod_params
    lr11xx_lr_fhss.o(i.lr11xx_lr_fhss_init) refers to lr11xx_lr_fhss.o(.constdata) for .constdata
    lr11xx_radio.o(i.lr11xx_radio_apply_high_acp_workaround) refers to lr11xx_regmem.o(i.lr11xx_regmem_write_regmem32_mask) for lr11xx_regmem_write_regmem32_mask
    lr11xx_radio.o(i.lr11xx_radio_auto_tx_rx) refers to lr11xx_hal.o(i.lr11xx_hal_write) for lr11xx_hal_write
    lr11xx_radio.o(i.lr11xx_radio_cfg_and_send_bluetooth_low_energy_beaconning_compatibility) refers to lr11xx_hal.o(i.lr11xx_hal_write) for lr11xx_hal_write
    lr11xx_radio.o(i.lr11xx_radio_cfg_bluetooth_low_energy_beaconning_compatibility) refers to lr11xx_hal.o(i.lr11xx_hal_write) for lr11xx_hal_write
    lr11xx_radio.o(i.lr11xx_radio_cfg_rx_boosted) refers to lr11xx_hal.o(i.lr11xx_hal_write) for lr11xx_hal_write
    lr11xx_radio.o(i.lr11xx_radio_get_gfsk_pkt_status) refers to lr11xx_hal.o(i.lr11xx_hal_read) for lr11xx_hal_read
    lr11xx_radio.o(i.lr11xx_radio_get_gfsk_stats) refers to lr11xx_hal.o(i.lr11xx_hal_read) for lr11xx_hal_read
    lr11xx_radio.o(i.lr11xx_radio_get_gfsk_time_on_air_in_ms) refers to lr11xx_radio.o(i.lr11xx_radio_get_gfsk_time_on_air_numerator) for lr11xx_radio_get_gfsk_time_on_air_numerator
    lr11xx_radio.o(i.lr11xx_radio_get_lora_pkt_status) refers to lr11xx_hal.o(i.lr11xx_hal_read) for lr11xx_hal_read
    lr11xx_radio.o(i.lr11xx_radio_get_lora_rx_info) refers to lr11xx_hal.o(i.lr11xx_hal_read) for lr11xx_hal_read
    lr11xx_radio.o(i.lr11xx_radio_get_lora_stats) refers to lr11xx_hal.o(i.lr11xx_hal_read) for lr11xx_hal_read
    lr11xx_radio.o(i.lr11xx_radio_get_lora_time_on_air_in_ms) refers to lr11xx_radio.o(i.lr11xx_radio_get_lora_time_on_air_numerator) for lr11xx_radio_get_lora_time_on_air_numerator
    lr11xx_radio.o(i.lr11xx_radio_get_lora_time_on_air_in_ms) refers to lr11xx_radio.o(i.lr11xx_radio_get_lora_bw_in_hz) for lr11xx_radio_get_lora_bw_in_hz
    lr11xx_radio.o(i.lr11xx_radio_get_pkt_type) refers to lr11xx_hal.o(i.lr11xx_hal_read) for lr11xx_hal_read
    lr11xx_radio.o(i.lr11xx_radio_get_rssi_inst) refers to lr11xx_hal.o(i.lr11xx_hal_read) for lr11xx_hal_read
    lr11xx_radio.o(i.lr11xx_radio_get_rx_buffer_status) refers to lr11xx_hal.o(i.lr11xx_hal_read) for lr11xx_hal_read
    lr11xx_radio.o(i.lr11xx_radio_reset_stats) refers to lr11xx_hal.o(i.lr11xx_hal_write) for lr11xx_hal_write
    lr11xx_radio.o(i.lr11xx_radio_set_bpsk_mod_params) refers to lr11xx_hal.o(i.lr11xx_hal_write) for lr11xx_hal_write
    lr11xx_radio.o(i.lr11xx_radio_set_bpsk_pkt_params) refers to lr11xx_hal.o(i.lr11xx_hal_write) for lr11xx_hal_write
    lr11xx_radio.o(i.lr11xx_radio_set_cad) refers to lr11xx_radio.o(i.lr11xx_radio_apply_high_acp_workaround) for lr11xx_radio_apply_high_acp_workaround
    lr11xx_radio.o(i.lr11xx_radio_set_cad) refers to lr11xx_hal.o(i.lr11xx_hal_write) for lr11xx_hal_write
    lr11xx_radio.o(i.lr11xx_radio_set_cad_params) refers to lr11xx_hal.o(i.lr11xx_hal_write) for lr11xx_hal_write
    lr11xx_radio.o(i.lr11xx_radio_set_gfsk_crc_params) refers to lr11xx_hal.o(i.lr11xx_hal_write) for lr11xx_hal_write
    lr11xx_radio.o(i.lr11xx_radio_set_gfsk_mod_params) refers to lr11xx_hal.o(i.lr11xx_hal_write) for lr11xx_hal_write
    lr11xx_radio.o(i.lr11xx_radio_set_gfsk_pkt_params) refers to lr11xx_hal.o(i.lr11xx_hal_write) for lr11xx_hal_write
    lr11xx_radio.o(i.lr11xx_radio_set_gfsk_sync_word) refers to lr11xx_hal.o(i.lr11xx_hal_write) for lr11xx_hal_write
    lr11xx_radio.o(i.lr11xx_radio_set_gfsk_whitening_seed) refers to lr11xx_hal.o(i.lr11xx_hal_write) for lr11xx_hal_write
    lr11xx_radio.o(i.lr11xx_radio_set_lna_mode) refers to lr11xx_regmem.o(i.lr11xx_regmem_write_regmem32_mask) for lr11xx_regmem_write_regmem32_mask
    lr11xx_radio.o(i.lr11xx_radio_set_lora_mod_params) refers to lr11xx_hal.o(i.lr11xx_hal_write) for lr11xx_hal_write
    lr11xx_radio.o(i.lr11xx_radio_set_lora_pkt_params) refers to lr11xx_hal.o(i.lr11xx_hal_write) for lr11xx_hal_write
    lr11xx_radio.o(i.lr11xx_radio_set_lora_public_network) refers to lr11xx_hal.o(i.lr11xx_hal_write) for lr11xx_hal_write
    lr11xx_radio.o(i.lr11xx_radio_set_lora_public_network) refers to lr11xx_radio.o(.constdata) for .constdata
    lr11xx_radio.o(i.lr11xx_radio_set_lora_sync_timeout) refers to lr11xx_hal.o(i.lr11xx_hal_write) for lr11xx_hal_write
    lr11xx_radio.o(i.lr11xx_radio_set_lora_sync_timeout) refers to lr11xx_radio.o(i.lr11xx_radio_convert_nb_symb_to_mant_exp) for lr11xx_radio_convert_nb_symb_to_mant_exp
    lr11xx_radio.o(i.lr11xx_radio_set_lora_sync_timeout) refers to lr11xx_radio.o(i.lr11xx_radio_set_lora_sync_timeout_with_mantissa_exponent) for lr11xx_radio_set_lora_sync_timeout_with_mantissa_exponent
    lr11xx_radio.o(i.lr11xx_radio_set_lora_sync_timeout_with_mantissa_exponent) refers to lr11xx_hal.o(i.lr11xx_hal_write) for lr11xx_hal_write
    lr11xx_radio.o(i.lr11xx_radio_set_lora_sync_word) refers to lr11xx_hal.o(i.lr11xx_hal_write) for lr11xx_hal_write
    lr11xx_radio.o(i.lr11xx_radio_set_lr_fhss_mod_params) refers to lr11xx_hal.o(i.lr11xx_hal_write) for lr11xx_hal_write
    lr11xx_radio.o(i.lr11xx_radio_set_lr_fhss_sync_word) refers to lr11xx_hal.o(i.lr11xx_hal_write) for lr11xx_hal_write
    lr11xx_radio.o(i.lr11xx_radio_set_pa_cfg) refers to lr11xx_hal.o(i.lr11xx_hal_write) for lr11xx_hal_write
    lr11xx_radio.o(i.lr11xx_radio_set_pkt_address) refers to lr11xx_hal.o(i.lr11xx_hal_write) for lr11xx_hal_write
    lr11xx_radio.o(i.lr11xx_radio_set_pkt_type) refers to lr11xx_hal.o(i.lr11xx_hal_write) for lr11xx_hal_write
    lr11xx_radio.o(i.lr11xx_radio_set_rf_freq) refers to lr11xx_hal.o(i.lr11xx_hal_write) for lr11xx_hal_write
    lr11xx_radio.o(i.lr11xx_radio_set_rssi_calibration) refers to lr11xx_hal.o(i.lr11xx_hal_write) for lr11xx_hal_write
    lr11xx_radio.o(i.lr11xx_radio_set_rx) refers to lr11xx_radio.o(i.lr11xx_radio_convert_time_in_ms_to_rtc_step) for lr11xx_radio_convert_time_in_ms_to_rtc_step
    lr11xx_radio.o(i.lr11xx_radio_set_rx) refers to lr11xx_radio.o(i.lr11xx_radio_set_rx_with_timeout_in_rtc_step) for lr11xx_radio_set_rx_with_timeout_in_rtc_step
    lr11xx_radio.o(i.lr11xx_radio_set_rx_and_lna_mode) refers to lr11xx_radio.o(i.lr11xx_radio_convert_time_in_ms_to_rtc_step) for lr11xx_radio_convert_time_in_ms_to_rtc_step
    lr11xx_radio.o(i.lr11xx_radio_set_rx_and_lna_mode) refers to lr11xx_radio.o(i.lr11xx_radio_set_rx_with_timeout_in_rtc_step_and_lna_mode) for lr11xx_radio_set_rx_with_timeout_in_rtc_step_and_lna_mode
    lr11xx_radio.o(i.lr11xx_radio_set_rx_duty_cycle) refers to lr11xx_radio.o(i.lr11xx_radio_convert_time_in_ms_to_rtc_step) for lr11xx_radio_convert_time_in_ms_to_rtc_step
    lr11xx_radio.o(i.lr11xx_radio_set_rx_duty_cycle) refers to lr11xx_radio.o(i.lr11xx_radio_set_rx_duty_cycle_with_timings_in_rtc_step) for lr11xx_radio_set_rx_duty_cycle_with_timings_in_rtc_step
    lr11xx_radio.o(i.lr11xx_radio_set_rx_duty_cycle_with_timings_in_rtc_step) refers to lr11xx_hal.o(i.lr11xx_hal_write) for lr11xx_hal_write
    lr11xx_radio.o(i.lr11xx_radio_set_rx_tx_fallback_mode) refers to lr11xx_hal.o(i.lr11xx_hal_write) for lr11xx_hal_write
    lr11xx_radio.o(i.lr11xx_radio_set_rx_with_timeout_in_rtc_step) refers to lr11xx_radio.o(i.lr11xx_radio_set_rx_with_timeout_in_rtc_step_and_lna_mode) for lr11xx_radio_set_rx_with_timeout_in_rtc_step_and_lna_mode
    lr11xx_radio.o(i.lr11xx_radio_set_rx_with_timeout_in_rtc_step_and_lna_mode) refers to lr11xx_radio.o(i.lr11xx_radio_apply_high_acp_workaround) for lr11xx_radio_apply_high_acp_workaround
    lr11xx_radio.o(i.lr11xx_radio_set_rx_with_timeout_in_rtc_step_and_lna_mode) refers to lr11xx_hal.o(i.lr11xx_hal_write) for lr11xx_hal_write
    lr11xx_radio.o(i.lr11xx_radio_set_rx_with_timeout_in_rtc_step_and_lna_mode) refers to lr11xx_radio.o(i.lr11xx_radio_set_lna_mode) for lr11xx_radio_set_lna_mode
    lr11xx_radio.o(i.lr11xx_radio_set_tx) refers to lr11xx_radio.o(i.lr11xx_radio_convert_time_in_ms_to_rtc_step) for lr11xx_radio_convert_time_in_ms_to_rtc_step
    lr11xx_radio.o(i.lr11xx_radio_set_tx) refers to lr11xx_radio.o(i.lr11xx_radio_set_tx_with_timeout_in_rtc_step) for lr11xx_radio_set_tx_with_timeout_in_rtc_step
    lr11xx_radio.o(i.lr11xx_radio_set_tx_cw) refers to lr11xx_hal.o(i.lr11xx_hal_write) for lr11xx_hal_write
    lr11xx_radio.o(i.lr11xx_radio_set_tx_infinite_preamble) refers to lr11xx_radio.o(i.lr11xx_radio_apply_high_acp_workaround) for lr11xx_radio_apply_high_acp_workaround
    lr11xx_radio.o(i.lr11xx_radio_set_tx_infinite_preamble) refers to lr11xx_hal.o(i.lr11xx_hal_write) for lr11xx_hal_write
    lr11xx_radio.o(i.lr11xx_radio_set_tx_params) refers to lr11xx_hal.o(i.lr11xx_hal_write) for lr11xx_hal_write
    lr11xx_radio.o(i.lr11xx_radio_set_tx_with_timeout_in_rtc_step) refers to lr11xx_radio.o(i.lr11xx_radio_apply_high_acp_workaround) for lr11xx_radio_apply_high_acp_workaround
    lr11xx_radio.o(i.lr11xx_radio_set_tx_with_timeout_in_rtc_step) refers to lr11xx_hal.o(i.lr11xx_hal_write) for lr11xx_hal_write
    lr11xx_radio.o(i.lr11xx_radio_stop_timeout_on_preamble) refers to lr11xx_hal.o(i.lr11xx_hal_write) for lr11xx_hal_write
    lr11xx_rttof.o(i.lr11xx_rttof_get_raw_result) refers to lr11xx_hal.o(i.lr11xx_hal_read) for lr11xx_hal_read
    lr11xx_rttof.o(i.lr11xx_rttof_set_address) refers to lr11xx_hal.o(i.lr11xx_hal_write) for lr11xx_hal_write
    lr11xx_rttof.o(i.lr11xx_rttof_set_parameters) refers to lr11xx_hal.o(i.lr11xx_hal_write) for lr11xx_hal_write
    lr11xx_rttof.o(i.lr11xx_rttof_set_request_address) refers to lr11xx_hal.o(i.lr11xx_hal_write) for lr11xx_hal_write
    lr11xx_rttof.o(i.lr11xx_rttof_set_rx_tx_delay_indicator) refers to lr11xx_hal.o(i.lr11xx_hal_write) for lr11xx_hal_write
    lr11xx_radio_timings.o(i.lr11xx_radio_timings_get_delay_between_last_bit_sent_and_rx_done_in_us) refers to lr11xx_radio_timings.o(i.lr11xx_radio_timings_get_lora_rx_input_delay_in_us) for lr11xx_radio_timings_get_lora_rx_input_delay_in_us
    lr11xx_radio_timings.o(i.lr11xx_radio_timings_get_delay_between_last_bit_sent_and_rx_done_in_us) refers to lr11xx_radio_timings.o(i.lr11xx_radio_timings_get_lora_symb_time_in_us) for lr11xx_radio_timings_get_lora_symb_time_in_us
    lr11xx_radio_timings.o(i.lr11xx_radio_timings_get_delay_between_last_bit_sent_and_tx_done_in_us) refers to lr11xx_radio_timings.o(i.lr11xx_radio_timings_get_pa_ramp_time_in_us) for lr11xx_radio_timings_get_pa_ramp_time_in_us
    lr11xx_radio_timings.o(i.lr11xx_radio_timings_get_lora_symb_time_in_us) refers to lr11xx_radio.o(i.lr11xx_radio_get_lora_bw_in_hz) for lr11xx_radio_get_lora_bw_in_hz
    lr11xx_regmem.o(i.lr11xx_regmem_clear_rxbuffer) refers to lr11xx_hal.o(i.lr11xx_hal_write) for lr11xx_hal_write
    lr11xx_regmem.o(i.lr11xx_regmem_fill_cbuffer_cdata_opcode_address_data) refers to lr11xx_regmem.o(i.lr11xx_regmem_fill_cbuffer_opcode_address) for lr11xx_regmem_fill_cbuffer_opcode_address
    lr11xx_regmem.o(i.lr11xx_regmem_fill_cbuffer_cdata_opcode_address_data) refers to lr11xx_regmem.o(i.lr11xx_regmem_fill_cdata) for lr11xx_regmem_fill_cdata
    lr11xx_regmem.o(i.lr11xx_regmem_fill_cbuffer_opcode_address_length) refers to lr11xx_regmem.o(i.lr11xx_regmem_fill_cbuffer_opcode_address) for lr11xx_regmem_fill_cbuffer_opcode_address
    lr11xx_regmem.o(i.lr11xx_regmem_read_buffer8) refers to lr11xx_hal.o(i.lr11xx_hal_read) for lr11xx_hal_read
    lr11xx_regmem.o(i.lr11xx_regmem_read_mem8) refers to lr11xx_regmem.o(i.lr11xx_regmem_fill_cbuffer_opcode_address_length) for lr11xx_regmem_fill_cbuffer_opcode_address_length
    lr11xx_regmem.o(i.lr11xx_regmem_read_mem8) refers to lr11xx_hal.o(i.lr11xx_hal_read) for lr11xx_hal_read
    lr11xx_regmem.o(i.lr11xx_regmem_read_regmem32) refers to lr11xx_regmem.o(i.lr11xx_regmem_fill_cbuffer_opcode_address_length) for lr11xx_regmem_fill_cbuffer_opcode_address_length
    lr11xx_regmem.o(i.lr11xx_regmem_read_regmem32) refers to lr11xx_hal.o(i.lr11xx_hal_read) for lr11xx_hal_read
    lr11xx_regmem.o(i.lr11xx_regmem_read_regmem32) refers to lr11xx_regmem.o(i.lr11xx_regmem_fill_out_buffer_from_raw_buffer) for lr11xx_regmem_fill_out_buffer_from_raw_buffer
    lr11xx_regmem.o(i.lr11xx_regmem_write_buffer8) refers to lr11xx_hal.o(i.lr11xx_hal_write) for lr11xx_hal_write
    lr11xx_regmem.o(i.lr11xx_regmem_write_mem8) refers to lr11xx_regmem.o(i.lr11xx_regmem_fill_cbuffer_opcode_address) for lr11xx_regmem_fill_cbuffer_opcode_address
    lr11xx_regmem.o(i.lr11xx_regmem_write_mem8) refers to lr11xx_hal.o(i.lr11xx_hal_write) for lr11xx_hal_write
    lr11xx_regmem.o(i.lr11xx_regmem_write_regmem32) refers to lr11xx_regmem.o(i.lr11xx_regmem_fill_cbuffer_cdata_opcode_address_data) for lr11xx_regmem_fill_cbuffer_cdata_opcode_address_data
    lr11xx_regmem.o(i.lr11xx_regmem_write_regmem32) refers to lr11xx_hal.o(i.lr11xx_hal_write) for lr11xx_hal_write
    lr11xx_regmem.o(i.lr11xx_regmem_write_regmem32_mask) refers to lr11xx_regmem.o(i.lr11xx_regmem_fill_cbuffer_opcode_address) for lr11xx_regmem_fill_cbuffer_opcode_address
    lr11xx_regmem.o(i.lr11xx_regmem_write_regmem32_mask) refers to lr11xx_hal.o(i.lr11xx_hal_write) for lr11xx_hal_write
    lr11xx_system.o(i.lr11xx_system_abort_blocking_cmd) refers to lr11xx_hal.o(i.lr11xx_hal_abort_blocking_cmd) for lr11xx_hal_abort_blocking_cmd
    lr11xx_system.o(i.lr11xx_system_calibrate) refers to lr11xx_hal.o(i.lr11xx_hal_write) for lr11xx_hal_write
    lr11xx_system.o(i.lr11xx_system_calibrate_image) refers to lr11xx_hal.o(i.lr11xx_hal_write) for lr11xx_hal_write
    lr11xx_system.o(i.lr11xx_system_calibrate_image_in_mhz) refers to lr11xx_system.o(i.lr11xx_system_calibrate_image) for lr11xx_system_calibrate_image
    lr11xx_system.o(i.lr11xx_system_cfg_lfclk) refers to lr11xx_hal.o(i.lr11xx_hal_write) for lr11xx_hal_write
    lr11xx_system.o(i.lr11xx_system_clear_errors) refers to lr11xx_hal.o(i.lr11xx_hal_write) for lr11xx_hal_write
    lr11xx_system.o(i.lr11xx_system_clear_irq_status) refers to lr11xx_hal.o(i.lr11xx_hal_write) for lr11xx_hal_write
    lr11xx_system.o(i.lr11xx_system_clear_reset_status_info) refers to lr11xx_hal.o(i.lr11xx_hal_write) for lr11xx_hal_write
    lr11xx_system.o(i.lr11xx_system_drive_dio_in_sleep_mode) refers to lr11xx_hal.o(i.lr11xx_hal_write) for lr11xx_hal_write
    lr11xx_system.o(i.lr11xx_system_enable_spi_crc) refers to lr11xx_hal.o(i.lr11xx_hal_write) for lr11xx_hal_write
    lr11xx_system.o(i.lr11xx_system_erase_infopage) refers to lr11xx_hal.o(i.lr11xx_hal_write) for lr11xx_hal_write
    lr11xx_system.o(i.lr11xx_system_get_and_clear_irq_status) refers to lr11xx_system.o(i.lr11xx_system_get_status) for lr11xx_system_get_status
    lr11xx_system.o(i.lr11xx_system_get_and_clear_irq_status) refers to lr11xx_system.o(i.lr11xx_system_clear_irq_status) for lr11xx_system_clear_irq_status
    lr11xx_system.o(i.lr11xx_system_get_errors) refers to lr11xx_hal.o(i.lr11xx_hal_read) for lr11xx_hal_read
    lr11xx_system.o(i.lr11xx_system_get_random_number) refers to lr11xx_hal.o(i.lr11xx_hal_read) for lr11xx_hal_read
    lr11xx_system.o(i.lr11xx_system_get_status) refers to lr11xx_hal.o(i.lr11xx_hal_direct_read) for lr11xx_hal_direct_read
    lr11xx_system.o(i.lr11xx_system_get_status) refers to lr11xx_system.o(i.lr11xx_system_convert_stat1_byte_to_enum) for lr11xx_system_convert_stat1_byte_to_enum
    lr11xx_system.o(i.lr11xx_system_get_status) refers to lr11xx_system.o(i.lr11xx_system_convert_stat2_byte_to_enum) for lr11xx_system_convert_stat2_byte_to_enum
    lr11xx_system.o(i.lr11xx_system_get_temp) refers to lr11xx_hal.o(i.lr11xx_hal_read) for lr11xx_hal_read
    lr11xx_system.o(i.lr11xx_system_get_vbat) refers to lr11xx_hal.o(i.lr11xx_hal_read) for lr11xx_hal_read
    lr11xx_system.o(i.lr11xx_system_get_version) refers to lr11xx_hal.o(i.lr11xx_hal_read) for lr11xx_hal_read
    lr11xx_system.o(i.lr11xx_system_read_infopage) refers to lr11xx_hal.o(i.lr11xx_hal_read) for lr11xx_hal_read
    lr11xx_system.o(i.lr11xx_system_read_join_eui) refers to lr11xx_hal.o(i.lr11xx_hal_read) for lr11xx_hal_read
    lr11xx_system.o(i.lr11xx_system_read_pin) refers to lr11xx_hal.o(i.lr11xx_hal_read) for lr11xx_hal_read
    lr11xx_system.o(i.lr11xx_system_read_pin_custom_eui) refers to memcpya.o(.text) for __aeabi_memcpy4
    lr11xx_system.o(i.lr11xx_system_read_pin_custom_eui) refers to lr11xx_hal.o(i.lr11xx_hal_read) for lr11xx_hal_read
    lr11xx_system.o(i.lr11xx_system_read_uid) refers to lr11xx_hal.o(i.lr11xx_hal_read) for lr11xx_hal_read
    lr11xx_system.o(i.lr11xx_system_reboot) refers to lr11xx_hal.o(i.lr11xx_hal_write) for lr11xx_hal_write
    lr11xx_system.o(i.lr11xx_system_reset) refers to lr11xx_hal.o(i.lr11xx_hal_reset) for lr11xx_hal_reset
    lr11xx_system.o(i.lr11xx_system_set_dio_as_rf_switch) refers to lr11xx_hal.o(i.lr11xx_hal_write) for lr11xx_hal_write
    lr11xx_system.o(i.lr11xx_system_set_dio_irq_params) refers to lr11xx_hal.o(i.lr11xx_hal_write) for lr11xx_hal_write
    lr11xx_system.o(i.lr11xx_system_set_fs) refers to lr11xx_hal.o(i.lr11xx_hal_write) for lr11xx_hal_write
    lr11xx_system.o(i.lr11xx_system_set_reg_mode) refers to lr11xx_hal.o(i.lr11xx_hal_write) for lr11xx_hal_write
    lr11xx_system.o(i.lr11xx_system_set_sleep) refers to lr11xx_hal.o(i.lr11xx_hal_write) for lr11xx_hal_write
    lr11xx_system.o(i.lr11xx_system_set_standby) refers to lr11xx_hal.o(i.lr11xx_hal_write) for lr11xx_hal_write
    lr11xx_system.o(i.lr11xx_system_set_tcxo_mode) refers to lr11xx_hal.o(i.lr11xx_hal_write) for lr11xx_hal_write
    lr11xx_system.o(i.lr11xx_system_wakeup) refers to lr11xx_hal.o(i.lr11xx_hal_wakeup) for lr11xx_hal_wakeup
    lr11xx_system.o(i.lr11xx_system_write_infopage) refers to lr11xx_hal.o(i.lr11xx_hal_write) for lr11xx_hal_write
    lr11xx_wifi.o(i.fetch_and_aggregate_all_results) refers to lr11xx_wifi.o(i.lr11xx_wifi_read_results_helper) for lr11xx_wifi_read_results_helper
    lr11xx_wifi.o(i.fetch_and_aggregate_all_results) refers to lr11xx_wifi.o(i.generic_results_interpreter) for generic_results_interpreter
    lr11xx_wifi.o(i.fetch_and_aggregate_all_results) refers to lr11xx_wifi.o(i.lr11xx_wifi_get_result_size_from_format) for lr11xx_wifi_get_result_size_from_format
    lr11xx_wifi.o(i.generic_results_interpreter) refers to lr11xx_wifi.o(i.interpret_basic_complete_result_from_buffer) for interpret_basic_complete_result_from_buffer
    lr11xx_wifi.o(i.generic_results_interpreter) refers to lr11xx_wifi.o(i.interpret_basic_mac_type_channel_result_from_buffer) for interpret_basic_mac_type_channel_result_from_buffer
    lr11xx_wifi.o(i.generic_results_interpreter) refers to lr11xx_wifi.o(i.interpret_extended_full_result_from_buffer) for interpret_extended_full_result_from_buffer
    lr11xx_wifi.o(i.interpret_basic_complete_result_from_buffer) refers to lr11xx_wifi.o(i.lr11xx_wifi_read_mac_address_from_buffer) for lr11xx_wifi_read_mac_address_from_buffer
    lr11xx_wifi.o(i.interpret_basic_complete_result_from_buffer) refers to lr11xx_wifi.o(i.uint16_from_array) for uint16_from_array
    lr11xx_wifi.o(i.interpret_basic_complete_result_from_buffer) refers to lr11xx_wifi.o(i.uint64_from_array) for uint64_from_array
    lr11xx_wifi.o(i.interpret_basic_mac_type_channel_result_from_buffer) refers to lr11xx_wifi.o(i.lr11xx_wifi_read_mac_address_from_buffer) for lr11xx_wifi_read_mac_address_from_buffer
    lr11xx_wifi.o(i.interpret_extended_full_result_from_buffer) refers to lr11xx_wifi.o(i.uint16_from_array) for uint16_from_array
    lr11xx_wifi.o(i.interpret_extended_full_result_from_buffer) refers to lr11xx_wifi.o(i.lr11xx_wifi_read_mac_address_from_buffer) for lr11xx_wifi_read_mac_address_from_buffer
    lr11xx_wifi.o(i.interpret_extended_full_result_from_buffer) refers to lr11xx_wifi.o(i.uint64_from_array) for uint64_from_array
    lr11xx_wifi.o(i.lr11xx_wifi_cfg_timestamp_ap_phone) refers to lr11xx_hal.o(i.lr11xx_hal_write) for lr11xx_hal_write
    lr11xx_wifi.o(i.lr11xx_wifi_get_consumption_nah) refers to f2d.o(.text) for __aeabi_f2d
    lr11xx_wifi.o(i.lr11xx_wifi_get_consumption_nah) refers to dadd.o(.text) for __aeabi_drsub
    lr11xx_wifi.o(i.lr11xx_wifi_get_consumption_nah) refers to ddiv.o(.text) for __aeabi_ddiv
    lr11xx_wifi.o(i.lr11xx_wifi_get_consumption_nah) refers to d2f.o(.text) for __aeabi_d2f
    lr11xx_wifi.o(i.lr11xx_wifi_get_consumption_nah) refers to dmul.o(.text) for __aeabi_dmul
    lr11xx_wifi.o(i.lr11xx_wifi_get_nb_country_code_results) refers to lr11xx_hal.o(i.lr11xx_hal_read) for lr11xx_hal_read
    lr11xx_wifi.o(i.lr11xx_wifi_get_nb_results) refers to lr11xx_hal.o(i.lr11xx_hal_read) for lr11xx_hal_read
    lr11xx_wifi.o(i.lr11xx_wifi_parse_channel_info) refers to lr11xx_wifi.o(i.lr11xx_wifi_extract_channel_from_info_byte) for lr11xx_wifi_extract_channel_from_info_byte
    lr11xx_wifi.o(i.lr11xx_wifi_parse_data_rate_info) refers to lr11xx_wifi.o(i.lr11xx_wifi_extract_signal_type_from_data_rate_info) for lr11xx_wifi_extract_signal_type_from_data_rate_info
    lr11xx_wifi.o(i.lr11xx_wifi_read_basic_complete_results) refers to memseta.o(.text) for __aeabi_memclr4
    lr11xx_wifi.o(i.lr11xx_wifi_read_basic_complete_results) refers to lr11xx_wifi.o(i.fetch_and_aggregate_all_results) for fetch_and_aggregate_all_results
    lr11xx_wifi.o(i.lr11xx_wifi_read_basic_mac_type_channel_results) refers to memseta.o(.text) for __aeabi_memclr4
    lr11xx_wifi.o(i.lr11xx_wifi_read_basic_mac_type_channel_results) refers to lr11xx_wifi.o(i.fetch_and_aggregate_all_results) for fetch_and_aggregate_all_results
    lr11xx_wifi.o(i.lr11xx_wifi_read_country_code_results) refers to memseta.o(.text) for __aeabi_memclr4
    lr11xx_wifi.o(i.lr11xx_wifi_read_country_code_results) refers to lr11xx_hal.o(i.lr11xx_hal_read) for lr11xx_hal_read
    lr11xx_wifi.o(i.lr11xx_wifi_read_cumulative_timing) refers to lr11xx_hal.o(i.lr11xx_hal_read) for lr11xx_hal_read
    lr11xx_wifi.o(i.lr11xx_wifi_read_extended_full_results) refers to memseta.o(.text) for __aeabi_memclr4
    lr11xx_wifi.o(i.lr11xx_wifi_read_extended_full_results) refers to lr11xx_wifi.o(i.fetch_and_aggregate_all_results) for fetch_and_aggregate_all_results
    lr11xx_wifi.o(i.lr11xx_wifi_read_results_helper) refers to lr11xx_wifi.o(i.lr11xx_wifi_get_result_size_from_format) for lr11xx_wifi_get_result_size_from_format
    lr11xx_wifi.o(i.lr11xx_wifi_read_results_helper) refers to lr11xx_wifi.o(i.lr11xx_wifi_get_format_code) for lr11xx_wifi_get_format_code
    lr11xx_wifi.o(i.lr11xx_wifi_read_results_helper) refers to lr11xx_hal.o(i.lr11xx_hal_read) for lr11xx_hal_read
    lr11xx_wifi.o(i.lr11xx_wifi_read_version) refers to lr11xx_hal.o(i.lr11xx_hal_read) for lr11xx_hal_read
    lr11xx_wifi.o(i.lr11xx_wifi_reset_cumulative_timing) refers to lr11xx_hal.o(i.lr11xx_hal_write) for lr11xx_hal_write
    lr11xx_wifi.o(i.lr11xx_wifi_scan) refers to lr11xx_hal.o(i.lr11xx_hal_write) for lr11xx_hal_write
    lr11xx_wifi.o(i.lr11xx_wifi_scan_time_limit) refers to lr11xx_hal.o(i.lr11xx_hal_write) for lr11xx_hal_write
    lr11xx_wifi.o(i.lr11xx_wifi_search_country_code) refers to lr11xx_hal.o(i.lr11xx_hal_write) for lr11xx_hal_write
    lr11xx_wifi.o(i.lr11xx_wifi_search_country_code_time_limit) refers to lr11xx_hal.o(i.lr11xx_hal_write) for lr11xx_hal_write
    smtc_hal_mcu_gpio_stm32l4.o(i.EXTI0_IRQHandler) refers to smtc_hal_mcu_gpio_stm32l4.o(i.LL_EXTI_IsActiveFlag_0_31) for LL_EXTI_IsActiveFlag_0_31
    smtc_hal_mcu_gpio_stm32l4.o(i.EXTI0_IRQHandler) refers to smtc_hal_mcu_gpio_stm32l4.o(i.LL_EXTI_ClearFlag_0_31) for LL_EXTI_ClearFlag_0_31
    smtc_hal_mcu_gpio_stm32l4.o(i.EXTI0_IRQHandler) refers to smtc_hal_mcu_gpio_stm32l4.o(i.smtc_hal_mcu_gpio_stm32l4_call_exti_callback) for smtc_hal_mcu_gpio_stm32l4_call_exti_callback
    smtc_hal_mcu_gpio_stm32l4.o(i.EXTI15_10_IRQHandler) refers to smtc_hal_mcu_gpio_stm32l4.o(i.LL_EXTI_IsActiveFlag_0_31) for LL_EXTI_IsActiveFlag_0_31
    smtc_hal_mcu_gpio_stm32l4.o(i.EXTI15_10_IRQHandler) refers to smtc_hal_mcu_gpio_stm32l4.o(i.LL_EXTI_ClearFlag_0_31) for LL_EXTI_ClearFlag_0_31
    smtc_hal_mcu_gpio_stm32l4.o(i.EXTI15_10_IRQHandler) refers to smtc_hal_mcu_gpio_stm32l4.o(i.smtc_hal_mcu_gpio_stm32l4_call_exti_callback) for smtc_hal_mcu_gpio_stm32l4_call_exti_callback
    smtc_hal_mcu_gpio_stm32l4.o(i.EXTI1_IRQHandler) refers to smtc_hal_mcu_gpio_stm32l4.o(i.LL_EXTI_IsActiveFlag_0_31) for LL_EXTI_IsActiveFlag_0_31
    smtc_hal_mcu_gpio_stm32l4.o(i.EXTI1_IRQHandler) refers to smtc_hal_mcu_gpio_stm32l4.o(i.LL_EXTI_ClearFlag_0_31) for LL_EXTI_ClearFlag_0_31
    smtc_hal_mcu_gpio_stm32l4.o(i.EXTI1_IRQHandler) refers to smtc_hal_mcu_gpio_stm32l4.o(i.smtc_hal_mcu_gpio_stm32l4_call_exti_callback) for smtc_hal_mcu_gpio_stm32l4_call_exti_callback
    smtc_hal_mcu_gpio_stm32l4.o(i.EXTI2_IRQHandler) refers to smtc_hal_mcu_gpio_stm32l4.o(i.LL_EXTI_IsActiveFlag_0_31) for LL_EXTI_IsActiveFlag_0_31
    smtc_hal_mcu_gpio_stm32l4.o(i.EXTI2_IRQHandler) refers to smtc_hal_mcu_gpio_stm32l4.o(i.LL_EXTI_ClearFlag_0_31) for LL_EXTI_ClearFlag_0_31
    smtc_hal_mcu_gpio_stm32l4.o(i.EXTI2_IRQHandler) refers to smtc_hal_mcu_gpio_stm32l4.o(i.smtc_hal_mcu_gpio_stm32l4_call_exti_callback) for smtc_hal_mcu_gpio_stm32l4_call_exti_callback
    smtc_hal_mcu_gpio_stm32l4.o(i.EXTI3_IRQHandler) refers to smtc_hal_mcu_gpio_stm32l4.o(i.LL_EXTI_IsActiveFlag_0_31) for LL_EXTI_IsActiveFlag_0_31
    smtc_hal_mcu_gpio_stm32l4.o(i.EXTI3_IRQHandler) refers to smtc_hal_mcu_gpio_stm32l4.o(i.LL_EXTI_ClearFlag_0_31) for LL_EXTI_ClearFlag_0_31
    smtc_hal_mcu_gpio_stm32l4.o(i.EXTI3_IRQHandler) refers to smtc_hal_mcu_gpio_stm32l4.o(i.smtc_hal_mcu_gpio_stm32l4_call_exti_callback) for smtc_hal_mcu_gpio_stm32l4_call_exti_callback
    smtc_hal_mcu_gpio_stm32l4.o(i.EXTI4_IRQHandler) refers to smtc_hal_mcu_gpio_stm32l4.o(i.LL_EXTI_IsActiveFlag_0_31) for LL_EXTI_IsActiveFlag_0_31
    smtc_hal_mcu_gpio_stm32l4.o(i.EXTI4_IRQHandler) refers to smtc_hal_mcu_gpio_stm32l4.o(i.LL_EXTI_ClearFlag_0_31) for LL_EXTI_ClearFlag_0_31
    smtc_hal_mcu_gpio_stm32l4.o(i.EXTI4_IRQHandler) refers to smtc_hal_mcu_gpio_stm32l4.o(i.smtc_hal_mcu_gpio_stm32l4_call_exti_callback) for smtc_hal_mcu_gpio_stm32l4_call_exti_callback
    smtc_hal_mcu_gpio_stm32l4.o(i.EXTI9_5_IRQHandler) refers to smtc_hal_mcu_gpio_stm32l4.o(i.LL_EXTI_IsActiveFlag_0_31) for LL_EXTI_IsActiveFlag_0_31
    smtc_hal_mcu_gpio_stm32l4.o(i.EXTI9_5_IRQHandler) refers to smtc_hal_mcu_gpio_stm32l4.o(i.LL_EXTI_ClearFlag_0_31) for LL_EXTI_ClearFlag_0_31
    smtc_hal_mcu_gpio_stm32l4.o(i.EXTI9_5_IRQHandler) refers to smtc_hal_mcu_gpio_stm32l4.o(i.smtc_hal_mcu_gpio_stm32l4_call_exti_callback) for smtc_hal_mcu_gpio_stm32l4_call_exti_callback
    smtc_hal_mcu_gpio_stm32l4.o(i.smtc_hal_mcu_gpio_deinit) refers to smtc_hal_mcu_gpio_stm32l4.o(i.smtc_hal_mcu_gpio_stm32l4_is_real_inst) for smtc_hal_mcu_gpio_stm32l4_is_real_inst
    smtc_hal_mcu_gpio_stm32l4.o(i.smtc_hal_mcu_gpio_deinit) refers to smtc_hal_mcu_gpio_stm32l4.o(i.smtc_hal_mcu_gpio_stm32l4_is_clock_enabled) for smtc_hal_mcu_gpio_stm32l4_is_clock_enabled
    smtc_hal_mcu_gpio_stm32l4.o(i.smtc_hal_mcu_gpio_deinit) refers to smtc_hal_mcu_gpio_stm32l4.o(i.smtc_hal_mcu_gpio_stm32l4_enable_clock) for smtc_hal_mcu_gpio_stm32l4_enable_clock
    smtc_hal_mcu_gpio_stm32l4.o(i.smtc_hal_mcu_gpio_deinit) refers to memcpya.o(.text) for __aeabi_memcpy4
    smtc_hal_mcu_gpio_stm32l4.o(i.smtc_hal_mcu_gpio_deinit) refers to stm32l4xx_ll_gpio.o(i.LL_GPIO_Init) for LL_GPIO_Init
    smtc_hal_mcu_gpio_stm32l4.o(i.smtc_hal_mcu_gpio_deinit) refers to smtc_hal_mcu_gpio_stm32l4.o(i.smtc_hal_mcu_gpio_disable_irq) for smtc_hal_mcu_gpio_disable_irq
    smtc_hal_mcu_gpio_stm32l4.o(i.smtc_hal_mcu_gpio_deinit) refers to stm32l4xx_ll_exti.o(i.LL_EXTI_StructInit) for LL_EXTI_StructInit
    smtc_hal_mcu_gpio_stm32l4.o(i.smtc_hal_mcu_gpio_deinit) refers to stm32l4xx_ll_exti.o(i.LL_EXTI_Init) for LL_EXTI_Init
    smtc_hal_mcu_gpio_stm32l4.o(i.smtc_hal_mcu_gpio_deinit) refers to smtc_hal_mcu_gpio_stm32l4.o(i.smtc_hal_mcu_gpio_stm32l4_disable_clock) for smtc_hal_mcu_gpio_stm32l4_disable_clock
    smtc_hal_mcu_gpio_stm32l4.o(i.smtc_hal_mcu_gpio_deinit) refers to smtc_hal_mcu_gpio_stm32l4.o(.constdata) for .constdata
    smtc_hal_mcu_gpio_stm32l4.o(i.smtc_hal_mcu_gpio_disable_irq) refers to smtc_hal_mcu_gpio_stm32l4.o(i.smtc_hal_mcu_gpio_stm32l4_is_real_inst) for smtc_hal_mcu_gpio_stm32l4_is_real_inst
    smtc_hal_mcu_gpio_stm32l4.o(i.smtc_hal_mcu_gpio_enable_irq) refers to smtc_hal_mcu_gpio_stm32l4.o(i.smtc_hal_mcu_gpio_stm32l4_is_real_inst) for smtc_hal_mcu_gpio_stm32l4_is_real_inst
    smtc_hal_mcu_gpio_stm32l4.o(i.smtc_hal_mcu_gpio_get_state) refers to smtc_hal_mcu_gpio_stm32l4.o(i.smtc_hal_mcu_gpio_stm32l4_is_real_inst) for smtc_hal_mcu_gpio_stm32l4_is_real_inst
    smtc_hal_mcu_gpio_stm32l4.o(i.smtc_hal_mcu_gpio_init_input) refers to smtc_hal_mcu_gpio_stm32l4.o(i.smtc_hal_mcu_gpio_stm32l4_is_configured) for smtc_hal_mcu_gpio_stm32l4_is_configured
    smtc_hal_mcu_gpio_stm32l4.o(i.smtc_hal_mcu_gpio_init_input) refers to smtc_hal_mcu_gpio_stm32l4.o(i.smtc_hal_mcu_gpio_stm32l4_get_free_slot) for smtc_hal_mcu_gpio_stm32l4_get_free_slot
    smtc_hal_mcu_gpio_stm32l4.o(i.smtc_hal_mcu_gpio_init_input) refers to memcpya.o(.text) for __aeabi_memcpy4
    smtc_hal_mcu_gpio_stm32l4.o(i.smtc_hal_mcu_gpio_init_input) refers to smtc_hal_mcu_gpio_stm32l4.o(i.smtc_hal_mcu_gpio_stm32l4_enable_clock) for smtc_hal_mcu_gpio_stm32l4_enable_clock
    smtc_hal_mcu_gpio_stm32l4.o(i.smtc_hal_mcu_gpio_init_input) refers to stm32l4xx_ll_gpio.o(i.LL_GPIO_Init) for LL_GPIO_Init
    smtc_hal_mcu_gpio_stm32l4.o(i.smtc_hal_mcu_gpio_init_input) refers to smtc_hal_mcu_gpio_stm32l4.o(i.smtc_hal_mcu_gpio_stm32l4_get_exti_cfg) for smtc_hal_mcu_gpio_stm32l4_get_exti_cfg
    smtc_hal_mcu_gpio_stm32l4.o(i.smtc_hal_mcu_gpio_init_input) refers to smtc_hal_mcu_gpio_stm32l4.o(i.smtc_hal_mcu_gpio_stm32l4_get_trigger) for smtc_hal_mcu_gpio_stm32l4_get_trigger
    smtc_hal_mcu_gpio_stm32l4.o(i.smtc_hal_mcu_gpio_init_input) refers to stm32l4xx_ll_exti.o(i.LL_EXTI_Init) for LL_EXTI_Init
    smtc_hal_mcu_gpio_stm32l4.o(i.smtc_hal_mcu_gpio_init_input) refers to smtc_hal_mcu_gpio_stm32l4.o(.constdata) for .constdata
    smtc_hal_mcu_gpio_stm32l4.o(i.smtc_hal_mcu_gpio_init_output) refers to smtc_hal_mcu_gpio_stm32l4.o(i.smtc_hal_mcu_gpio_stm32l4_is_configured) for smtc_hal_mcu_gpio_stm32l4_is_configured
    smtc_hal_mcu_gpio_stm32l4.o(i.smtc_hal_mcu_gpio_init_output) refers to smtc_hal_mcu_gpio_stm32l4.o(i.smtc_hal_mcu_gpio_stm32l4_get_free_slot) for smtc_hal_mcu_gpio_stm32l4_get_free_slot
    smtc_hal_mcu_gpio_stm32l4.o(i.smtc_hal_mcu_gpio_init_output) refers to memcpya.o(.text) for __aeabi_memcpy4
    smtc_hal_mcu_gpio_stm32l4.o(i.smtc_hal_mcu_gpio_init_output) refers to smtc_hal_mcu_gpio_stm32l4.o(i.smtc_hal_mcu_gpio_stm32l4_enable_clock) for smtc_hal_mcu_gpio_stm32l4_enable_clock
    smtc_hal_mcu_gpio_stm32l4.o(i.smtc_hal_mcu_gpio_init_output) refers to smtc_hal_mcu_gpio_stm32l4.o(i.smtc_hal_mcu_gpio_set_state) for smtc_hal_mcu_gpio_set_state
    smtc_hal_mcu_gpio_stm32l4.o(i.smtc_hal_mcu_gpio_init_output) refers to stm32l4xx_ll_gpio.o(i.LL_GPIO_Init) for LL_GPIO_Init
    smtc_hal_mcu_gpio_stm32l4.o(i.smtc_hal_mcu_gpio_init_output) refers to smtc_hal_mcu_gpio_stm32l4.o(.constdata) for .constdata
    smtc_hal_mcu_gpio_stm32l4.o(i.smtc_hal_mcu_gpio_set_state) refers to smtc_hal_mcu_gpio_stm32l4.o(i.smtc_hal_mcu_gpio_stm32l4_is_real_inst) for smtc_hal_mcu_gpio_stm32l4_is_real_inst
    smtc_hal_mcu_gpio_stm32l4.o(i.smtc_hal_mcu_gpio_stm32l4_call_exti_callback) refers to smtc_hal_mcu_gpio_stm32l4.o(.bss) for gpio_inst_array
    smtc_hal_mcu_gpio_stm32l4.o(i.smtc_hal_mcu_gpio_stm32l4_disable_clock) refers to smtc_hal_mcu_gpio_stm32l4.o(i.LL_AHB2_GRP1_DisableClock) for LL_AHB2_GRP1_DisableClock
    smtc_hal_mcu_gpio_stm32l4.o(i.smtc_hal_mcu_gpio_stm32l4_enable_clock) refers to smtc_hal_mcu_gpio_stm32l4.o(i.LL_AHB2_GRP1_EnableClock) for LL_AHB2_GRP1_EnableClock
    smtc_hal_mcu_gpio_stm32l4.o(i.smtc_hal_mcu_gpio_stm32l4_get_free_slot) refers to smtc_hal_mcu_gpio_stm32l4.o(.bss) for gpio_inst_array
    smtc_hal_mcu_gpio_stm32l4.o(i.smtc_hal_mcu_gpio_stm32l4_is_clock_enabled) refers to smtc_hal_mcu_gpio_stm32l4.o(i.LL_AHB2_GRP1_IsEnabledClock) for LL_AHB2_GRP1_IsEnabledClock
    smtc_hal_mcu_gpio_stm32l4.o(i.smtc_hal_mcu_gpio_stm32l4_is_configured) refers to smtc_hal_mcu_gpio_stm32l4.o(.bss) for gpio_inst_array
    smtc_hal_mcu_gpio_stm32l4.o(i.smtc_hal_mcu_gpio_stm32l4_is_real_inst) refers to smtc_hal_mcu_gpio_stm32l4.o(.bss) for gpio_inst_array
    smtc_hal_mcu_rng_stm32l4.o(i.smtc_hal_mcu_rng_deinit) refers to smtc_hal_mcu_rng_stm32l4.o(i.smtc_hal_mcu_rng_stm32l4_is_real_inst) for smtc_hal_mcu_rng_stm32l4_is_real_inst
    smtc_hal_mcu_rng_stm32l4.o(i.smtc_hal_mcu_rng_deinit) refers to smtc_hal_mcu_rng_stm32l4.o(i.LL_RCC_SetRNGClockSource) for LL_RCC_SetRNGClockSource
    smtc_hal_mcu_rng_stm32l4.o(i.smtc_hal_mcu_rng_deinit) refers to smtc_hal_mcu_rng_stm32l4.o(i.LL_RCC_PLLSAI1_ConfigDomain_48M) for LL_RCC_PLLSAI1_ConfigDomain_48M
    smtc_hal_mcu_rng_stm32l4.o(i.smtc_hal_mcu_rng_get_bytes) refers to smtc_hal_mcu_rng_stm32l4.o(i.smtc_hal_mcu_rng_stm32l4_is_real_inst) for smtc_hal_mcu_rng_stm32l4_is_real_inst
    smtc_hal_mcu_rng_stm32l4.o(i.smtc_hal_mcu_rng_init) refers to smtc_hal_mcu_rng_stm32l4.o(i.smtc_hal_mcu_rng_stm32l4_get_free_slot) for smtc_hal_mcu_rng_stm32l4_get_free_slot
    smtc_hal_mcu_rng_stm32l4.o(i.smtc_hal_mcu_rng_init) refers to smtc_hal_mcu_rng_stm32l4.o(i.LL_RCC_PLLSAI1_ConfigDomain_48M) for LL_RCC_PLLSAI1_ConfigDomain_48M
    smtc_hal_mcu_rng_stm32l4.o(i.smtc_hal_mcu_rng_init) refers to smtc_hal_mcu_rng_stm32l4.o(i.LL_RCC_SetRNGClockSource) for LL_RCC_SetRNGClockSource
    smtc_hal_mcu_rng_stm32l4.o(i.smtc_hal_mcu_rng_stm32l4_get_free_slot) refers to smtc_hal_mcu_rng_stm32l4.o(.data) for rng_inst_array
    smtc_hal_mcu_rng_stm32l4.o(i.smtc_hal_mcu_rng_stm32l4_is_real_inst) refers to smtc_hal_mcu_rng_stm32l4.o(.data) for rng_inst_array
    smtc_hal_mcu_uart_stm32l4.o(i.USART2_IRQHandler) refers to smtc_hal_mcu_uart_stm32l4.o(i.LL_USART_IsActiveFlag_RXNE) for LL_USART_IsActiveFlag_RXNE
    smtc_hal_mcu_uart_stm32l4.o(i.USART2_IRQHandler) refers to smtc_hal_mcu_uart_stm32l4.o(.bss) for uart_inst_array
    smtc_hal_mcu_uart_stm32l4.o(i.smtc_hal_mcu_uart_deinit) refers to smtc_hal_mcu_uart_stm32l4.o(i.smtc_hal_mcu_uart_stm32l4_is_real_inst) for smtc_hal_mcu_uart_stm32l4_is_real_inst
    smtc_hal_mcu_uart_stm32l4.o(i.smtc_hal_mcu_uart_deinit) refers to smtc_hal_mcu_uart_stm32l4.o(i.LL_USART_IsEnabled) for LL_USART_IsEnabled
    smtc_hal_mcu_uart_stm32l4.o(i.smtc_hal_mcu_uart_deinit) refers to stm32l4xx_ll_usart.o(i.LL_USART_DeInit) for LL_USART_DeInit
    smtc_hal_mcu_uart_stm32l4.o(i.smtc_hal_mcu_uart_deinit) refers to smtc_hal_mcu_uart_stm32l4.o(i.LL_AHB2_GRP1_EnableClock) for LL_AHB2_GRP1_EnableClock
    smtc_hal_mcu_uart_stm32l4.o(i.smtc_hal_mcu_uart_deinit) refers to memcpya.o(.text) for __aeabi_memcpy4
    smtc_hal_mcu_uart_stm32l4.o(i.smtc_hal_mcu_uart_deinit) refers to stm32l4xx_ll_gpio.o(i.LL_GPIO_Init) for LL_GPIO_Init
    smtc_hal_mcu_uart_stm32l4.o(i.smtc_hal_mcu_uart_deinit) refers to smtc_hal_mcu_uart_stm32l4.o(.constdata) for .constdata
    smtc_hal_mcu_uart_stm32l4.o(i.smtc_hal_mcu_uart_init) refers to smtc_hal_mcu_uart_stm32l4.o(i.smtc_hal_mcu_uart_stm32l4_get_free_slot) for smtc_hal_mcu_uart_stm32l4_get_free_slot
    smtc_hal_mcu_uart_stm32l4.o(i.smtc_hal_mcu_uart_init) refers to smtc_hal_mcu_uart_stm32l4.o(i.LL_AHB2_GRP1_EnableClock) for LL_AHB2_GRP1_EnableClock
    smtc_hal_mcu_uart_stm32l4.o(i.smtc_hal_mcu_uart_init) refers to memcpya.o(.text) for __aeabi_memcpy4
    smtc_hal_mcu_uart_stm32l4.o(i.smtc_hal_mcu_uart_init) refers to stm32l4xx_ll_gpio.o(i.LL_GPIO_Init) for LL_GPIO_Init
    smtc_hal_mcu_uart_stm32l4.o(i.smtc_hal_mcu_uart_init) refers to stm32l4xx_ll_usart.o(i.LL_USART_Init) for LL_USART_Init
    smtc_hal_mcu_uart_stm32l4.o(i.smtc_hal_mcu_uart_init) refers to smtc_hal_mcu_uart_stm32l4.o(i.LL_USART_IsEnabled) for LL_USART_IsEnabled
    smtc_hal_mcu_uart_stm32l4.o(i.smtc_hal_mcu_uart_init) refers to smtc_hal_mcu_uart_stm32l4.o(.constdata) for .constdata
    smtc_hal_mcu_uart_stm32l4.o(i.smtc_hal_mcu_uart_receive) refers to smtc_hal_mcu_uart_stm32l4.o(i.LL_USART_IsActiveFlag_RXNE) for LL_USART_IsActiveFlag_RXNE
    smtc_hal_mcu_uart_stm32l4.o(i.smtc_hal_mcu_uart_receive) refers to smtc_hal_mcu_uart_stm32l4.o(i.LL_USART_ReceiveData8) for LL_USART_ReceiveData8
    smtc_hal_mcu_uart_stm32l4.o(i.smtc_hal_mcu_uart_stm32l4_get_free_slot) refers to smtc_hal_mcu_uart_stm32l4.o(.bss) for uart_inst_array
    smtc_hal_mcu_uart_stm32l4.o(i.smtc_hal_mcu_uart_stm32l4_is_real_inst) refers to smtc_hal_mcu_uart_stm32l4.o(.bss) for uart_inst_array
    smtc_hal_mcu_timer_stm32l4.o(i.LPTIM1_IRQHandler) refers to smtc_hal_mcu_timer_stm32l4.o(.bss) for tim_inst_array
    smtc_hal_mcu_timer_stm32l4.o(i.smtc_hal_mcu_timer_get_max_value) refers to smtc_hal_mcu_timer_stm32l4.o(i.smtc_hal_mcu_timer_stm32l4_is_real_inst) for smtc_hal_mcu_timer_stm32l4_is_real_inst
    smtc_hal_mcu_timer_stm32l4.o(i.smtc_hal_mcu_timer_get_remaining_time) refers to smtc_hal_mcu_timer_stm32l4.o(i.smtc_hal_mcu_timer_stm32l4_is_real_inst) for smtc_hal_mcu_timer_stm32l4_is_real_inst
    smtc_hal_mcu_timer_stm32l4.o(i.smtc_hal_mcu_timer_get_remaining_time) refers to smtc_hal_mcu_timer_stm32l4.o(i.LL_LPTIM_GetCounter) for LL_LPTIM_GetCounter
    smtc_hal_mcu_timer_stm32l4.o(i.smtc_hal_mcu_timer_init) refers to smtc_hal_mcu_timer_stm32l4.o(i.smtc_hal_mcu_timer_stm32l4_is_configured) for smtc_hal_mcu_timer_stm32l4_is_configured
    smtc_hal_mcu_timer_stm32l4.o(i.smtc_hal_mcu_timer_init) refers to smtc_hal_mcu_timer_stm32l4.o(i.smtc_hal_mcu_timer_stm32l4_get_free_slot) for smtc_hal_mcu_timer_stm32l4_get_free_slot
    smtc_hal_mcu_timer_stm32l4.o(i.smtc_hal_mcu_timer_init) refers to stm32l4xx_ll_lptim.o(i.LL_LPTIM_Init) for LL_LPTIM_Init
    smtc_hal_mcu_timer_stm32l4.o(i.smtc_hal_mcu_timer_init) refers to smtc_hal_mcu_timer_stm32l4.o(.constdata) for .constdata
    smtc_hal_mcu_timer_stm32l4.o(i.smtc_hal_mcu_timer_start) refers to smtc_hal_mcu_timer_stm32l4.o(i.smtc_hal_mcu_timer_stm32l4_is_real_inst) for smtc_hal_mcu_timer_stm32l4_is_real_inst
    smtc_hal_mcu_timer_stm32l4.o(i.smtc_hal_mcu_timer_start) refers to smtc_hal_mcu_timer_stm32l4.o(i.LL_LPTIM_IsEnabled) for LL_LPTIM_IsEnabled
    smtc_hal_mcu_timer_stm32l4.o(i.smtc_hal_mcu_timer_start) refers to smtc_hal_mcu_timer_stm32l4.o(i.LL_LPTIM_ClearFlag_ARROK) for LL_LPTIM_ClearFlag_ARROK
    smtc_hal_mcu_timer_stm32l4.o(i.smtc_hal_mcu_timer_stm32l4_get_free_slot) refers to smtc_hal_mcu_timer_stm32l4.o(.bss) for tim_inst_array
    smtc_hal_mcu_timer_stm32l4.o(i.smtc_hal_mcu_timer_stm32l4_is_configured) refers to smtc_hal_mcu_timer_stm32l4.o(.bss) for tim_inst_array
    smtc_hal_mcu_timer_stm32l4.o(i.smtc_hal_mcu_timer_stm32l4_is_real_inst) refers to smtc_hal_mcu_timer_stm32l4.o(.bss) for tim_inst_array
    smtc_hal_mcu_timer_stm32l4.o(i.smtc_hal_mcu_timer_stop) refers to smtc_hal_mcu_timer_stm32l4.o(i.smtc_hal_mcu_timer_stm32l4_is_real_inst) for smtc_hal_mcu_timer_stm32l4_is_real_inst
    smtc_hal_mcu_timer_stm32l4.o(i.smtc_hal_mcu_timer_stop) refers to stm32l4xx_ll_lptim.o(i.LL_LPTIM_Disable) for LL_LPTIM_Disable
    smtc_hal_mcu_timer_stm32l4.o(i.smtc_hal_mcu_timer_stop) refers to smtc_hal_mcu_timer_stm32l4.o(i.LL_LPTIM_IsEnabled) for LL_LPTIM_IsEnabled
    smtc_hal_mcu_stm32l4.o(i.smtc_hal_mcu_init) refers to stm32l4xx_ll_utils.o(i.LL_Init1msTick) for LL_Init1msTick
    smtc_hal_mcu_stm32l4.o(i.smtc_hal_mcu_init) refers to stm32l4xx_ll_utils.o(i.LL_SetSystemCoreClock) for LL_SetSystemCoreClock
    smtc_hal_mcu_spi_stm32l4.o(i.smtc_hal_mcu_spi_deinit) refers to smtc_hal_mcu_spi_stm32l4.o(i.smtc_hal_mcu_spi_stm32l4_is_real_inst) for smtc_hal_mcu_spi_stm32l4_is_real_inst
    smtc_hal_mcu_spi_stm32l4.o(i.smtc_hal_mcu_spi_deinit) refers to stm32l4xx_ll_spi.o(i.LL_SPI_DeInit) for LL_SPI_DeInit
    smtc_hal_mcu_spi_stm32l4.o(i.smtc_hal_mcu_spi_deinit) refers to memcpya.o(.text) for __aeabi_memcpy4
    smtc_hal_mcu_spi_stm32l4.o(i.smtc_hal_mcu_spi_deinit) refers to stm32l4xx_ll_gpio.o(i.LL_GPIO_Init) for LL_GPIO_Init
    smtc_hal_mcu_spi_stm32l4.o(i.smtc_hal_mcu_spi_deinit) refers to smtc_hal_mcu_spi_stm32l4.o(.constdata) for .constdata
    smtc_hal_mcu_spi_stm32l4.o(i.smtc_hal_mcu_spi_init) refers to smtc_hal_mcu_spi_stm32l4.o(i.smtc_hal_mcu_spi_stm32l4_get_free_slot) for smtc_hal_mcu_spi_stm32l4_get_free_slot
    smtc_hal_mcu_spi_stm32l4.o(i.smtc_hal_mcu_spi_init) refers to smtc_hal_mcu_spi_stm32l4.o(i.LL_AHB2_GRP1_EnableClock) for LL_AHB2_GRP1_EnableClock
    smtc_hal_mcu_spi_stm32l4.o(i.smtc_hal_mcu_spi_init) refers to memcpya.o(.text) for __aeabi_memcpy4
    smtc_hal_mcu_spi_stm32l4.o(i.smtc_hal_mcu_spi_init) refers to stm32l4xx_ll_gpio.o(i.LL_GPIO_Init) for LL_GPIO_Init
    smtc_hal_mcu_spi_stm32l4.o(i.smtc_hal_mcu_spi_init) refers to stm32l4xx_ll_spi.o(i.LL_SPI_Init) for LL_SPI_Init
    smtc_hal_mcu_spi_stm32l4.o(i.smtc_hal_mcu_spi_init) refers to smtc_hal_mcu_spi_stm32l4.o(.constdata) for .constdata
    smtc_hal_mcu_spi_stm32l4.o(i.smtc_hal_mcu_spi_rw_buffer) refers to smtc_hal_mcu_spi_stm32l4.o(i.smtc_hal_mcu_spi_stm32l4_is_real_inst) for smtc_hal_mcu_spi_stm32l4_is_real_inst
    smtc_hal_mcu_spi_stm32l4.o(i.smtc_hal_mcu_spi_stm32l4_get_free_slot) refers to smtc_hal_mcu_spi_stm32l4.o(.bss) for spi_inst_array
    smtc_hal_mcu_spi_stm32l4.o(i.smtc_hal_mcu_spi_stm32l4_is_real_inst) refers to smtc_hal_mcu_spi_stm32l4.o(.bss) for spi_inst_array
    lr11xx_hal.o(i.lr11xx_hal_abort_blocking_cmd) refers to smtc_hal_mcu_gpio_stm32l4.o(i.smtc_hal_mcu_gpio_set_state) for smtc_hal_mcu_gpio_set_state
    lr11xx_hal.o(i.lr11xx_hal_abort_blocking_cmd) refers to smtc_hal_mcu_spi_stm32l4.o(i.smtc_hal_mcu_spi_rw_buffer) for smtc_hal_mcu_spi_rw_buffer
    lr11xx_hal.o(i.lr11xx_hal_abort_blocking_cmd) refers to lr11xx_hal.o(i.lr11xx_hal_wait_on_busy) for lr11xx_hal_wait_on_busy
    lr11xx_hal.o(i.lr11xx_hal_direct_read) refers to lr11xx_hal.o(i.lr11xx_hal_wait_on_busy) for lr11xx_hal_wait_on_busy
    lr11xx_hal.o(i.lr11xx_hal_direct_read) refers to smtc_hal_mcu_gpio_stm32l4.o(i.smtc_hal_mcu_gpio_set_state) for smtc_hal_mcu_gpio_set_state
    lr11xx_hal.o(i.lr11xx_hal_direct_read) refers to smtc_hal_mcu_spi_stm32l4.o(i.smtc_hal_mcu_spi_rw_buffer) for smtc_hal_mcu_spi_rw_buffer
    lr11xx_hal.o(i.lr11xx_hal_read) refers to lr11xx_hal.o(i.lr11xx_hal_wait_on_busy) for lr11xx_hal_wait_on_busy
    lr11xx_hal.o(i.lr11xx_hal_read) refers to smtc_hal_mcu_gpio_stm32l4.o(i.smtc_hal_mcu_gpio_set_state) for smtc_hal_mcu_gpio_set_state
    lr11xx_hal.o(i.lr11xx_hal_read) refers to smtc_hal_mcu_spi_stm32l4.o(i.smtc_hal_mcu_spi_rw_buffer) for smtc_hal_mcu_spi_rw_buffer
    lr11xx_hal.o(i.lr11xx_hal_reset) refers to smtc_hal_mcu_gpio_stm32l4.o(i.smtc_hal_mcu_gpio_set_state) for smtc_hal_mcu_gpio_set_state
    lr11xx_hal.o(i.lr11xx_hal_reset) refers to stm32l4xx_ll_utils.o(i.LL_mDelay) for LL_mDelay
    lr11xx_hal.o(i.lr11xx_hal_wait_on_busy) refers to smtc_hal_mcu_gpio_stm32l4.o(i.smtc_hal_mcu_gpio_get_state) for smtc_hal_mcu_gpio_get_state
    lr11xx_hal.o(i.lr11xx_hal_wakeup) refers to smtc_hal_mcu_gpio_stm32l4.o(i.smtc_hal_mcu_gpio_set_state) for smtc_hal_mcu_gpio_set_state
    lr11xx_hal.o(i.lr11xx_hal_wakeup) refers to stm32l4xx_ll_utils.o(i.LL_mDelay) for LL_mDelay
    lr11xx_hal.o(i.lr11xx_hal_write) refers to lr11xx_hal.o(i.lr11xx_hal_wait_on_busy) for lr11xx_hal_wait_on_busy
    lr11xx_hal.o(i.lr11xx_hal_write) refers to smtc_hal_mcu_gpio_stm32l4.o(i.smtc_hal_mcu_gpio_set_state) for smtc_hal_mcu_gpio_set_state
    lr11xx_hal.o(i.lr11xx_hal_write) refers to smtc_hal_mcu_spi_stm32l4.o(i.smtc_hal_mcu_spi_rw_buffer) for smtc_hal_mcu_spi_rw_buffer
    smtc_shield_lr11xx_common.o(i.smtc_shield_lr11xx_common_get_lfclk_cfg) refers to smtc_shield_lr11xx_common.o(.constdata) for smtc_shield_lr11xx_common_lfclk_cfg
    smtc_shield_lr11xx_common.o(i.smtc_shield_lr11xx_common_get_pinout) refers to smtc_shield_lr11xx_common.o(.constdata) for smtc_shield_lr11xx_common_pinout
    smtc_shield_lr11xx_common.o(i.smtc_shield_lr11xx_common_get_rf_switch_cfg) refers to smtc_shield_lr11xx_common.o(.constdata) for smtc_shield_lr11xx_common_rf_switch_cfg
    smtc_shield_lr11xx_common.o(i.smtc_shield_lr11xx_get_rssi_calibration_table) refers to smtc_shield_lr11xx_common.o(.constdata) for smtc_shield_lr11xx_common_rssi_calibration_table_below_600mhz
    smtc_shield_lr11x0_common.o(i.smtc_shield_lr11x0_common_get_xosc_cfg) refers to smtc_shield_lr11x0_common.o(.constdata) for smtc_shield_lr11x0_common_xosc_cfg
    smtc_shield_lr11x0_common.o(i.smtc_shield_lr11x0_common_rttof_recommended_rx_tx_delay_indicator) refers to smtc_shield_lr11x0_common.o(.constdata) for rttof_delay_indicator_table_below_600mhz
    smtc_shield_lr1120mb1dxs_common.o(i.smtc_shield_lr1120mb1dxs_common_get_pa_pwr_cfg) refers to smtc_shield_lr1120mb1dxs_common.o(.constdata) for smtc_shield_lr1120mb1dxs_common_pa_pwr_cfg_table
    smtc_shield_lr1120mb1dis.o(i.smtc_shield_lr1120mb1dis_get_lfclk_cfg) refers to smtc_shield_lr11xx_common.o(i.smtc_shield_lr11xx_common_get_lfclk_cfg) for smtc_shield_lr11xx_common_get_lfclk_cfg
    smtc_shield_lr1120mb1dis.o(i.smtc_shield_lr1120mb1dis_get_pa_pwr_cfg) refers to smtc_shield_lr1120mb1dxs_common.o(i.smtc_shield_lr1120mb1dxs_common_get_pa_pwr_cfg) for smtc_shield_lr1120mb1dxs_common_get_pa_pwr_cfg
    smtc_shield_lr1120mb1dis.o(i.smtc_shield_lr1120mb1dis_get_pinout) refers to smtc_shield_lr11xx_common.o(i.smtc_shield_lr11xx_common_get_pinout) for smtc_shield_lr11xx_common_get_pinout
    smtc_shield_lr1120mb1dis.o(i.smtc_shield_lr1120mb1dis_get_reg_mode) refers to smtc_shield_lr11xx_common.o(i.smtc_shield_lr11xx_common_get_reg_mode) for smtc_shield_lr11xx_common_get_reg_mode
    smtc_shield_lr1120mb1dis.o(i.smtc_shield_lr1120mb1dis_get_rf_switch_cfg) refers to smtc_shield_lr11xx_common.o(i.smtc_shield_lr11xx_common_get_rf_switch_cfg) for smtc_shield_lr11xx_common_get_rf_switch_cfg
    smtc_shield_lr1120mb1dis.o(i.smtc_shield_lr1120mb1dis_get_rssi_calibration_table) refers to smtc_shield_lr11xx_common.o(i.smtc_shield_lr11xx_get_rssi_calibration_table) for smtc_shield_lr11xx_get_rssi_calibration_table
    smtc_shield_lr1120mb1dis.o(i.smtc_shield_lr1120mb1dis_get_xosc_cfg) refers to smtc_shield_lr11x0_common.o(i.smtc_shield_lr11x0_common_get_xosc_cfg) for smtc_shield_lr11x0_common_get_xosc_cfg
    lr11xx_radio_types_str.o(i.lr11xx_radio_gfsk_address_filtering_to_str) refers to lr11xx_radio_types_str.o(.conststring) for .conststring
    entry.o(.ARM.Collect$$$$00000000) refers (Special) to entry10a.o(.ARM.Collect$$$$0000000D) for __rt_final_cpp
    entry.o(.ARM.Collect$$$$00000000) refers (Special) to entry11a.o(.ARM.Collect$$$$0000000F) for __rt_final_exit
    entry.o(.ARM.Collect$$$$00000000) refers (Special) to entry7b.o(.ARM.Collect$$$$00000008) for _main_clock
    entry.o(.ARM.Collect$$$$00000000) refers (Special) to entry8b.o(.ARM.Collect$$$$0000000A) for _main_cpp_init
    entry.o(.ARM.Collect$$$$00000000) refers (Special) to entry9a.o(.ARM.Collect$$$$0000000B) for _main_init
    entry.o(.ARM.Collect$$$$00000000) refers (Special) to entry5.o(.ARM.Collect$$$$00000004) for _main_scatterload
    entry.o(.ARM.Collect$$$$00000000) refers (Special) to entry2.o(.ARM.Collect$$$$00000001) for _main_stk
    printfa.o(i.__0fprintf) refers (Special) to iusefp.o(.text) for __I$use$fp
    printfa.o(i.__0fprintf) refers to printfa.o(i._printf_core) for _printf_core
    printfa.o(i.__0fprintf) refers to fputc.o(i.fputc) for fputc
    printfa.o(i.__0printf) refers (Special) to iusefp.o(.text) for __I$use$fp
    printfa.o(i.__0printf) refers to printfa.o(i._printf_core) for _printf_core
    printfa.o(i.__0printf) refers to fputc.o(i.fputc) for fputc
    printfa.o(i.__0printf) refers to stdout.o(.data) for __stdout
    printfa.o(i.__0snprintf) refers (Special) to iusefp.o(.text) for __I$use$fp
    printfa.o(i.__0snprintf) refers to printfa.o(i._printf_core) for _printf_core
    printfa.o(i.__0snprintf) refers to printfa.o(i._snputc) for _snputc
    printfa.o(i.__0sprintf) refers (Special) to iusefp.o(.text) for __I$use$fp
    printfa.o(i.__0sprintf) refers to printfa.o(i._printf_core) for _printf_core
    printfa.o(i.__0sprintf) refers to printfa.o(i._sputc) for _sputc
    printfa.o(i.__0vfprintf) refers (Special) to iusefp.o(.text) for __I$use$fp
    printfa.o(i.__0vfprintf) refers to printfa.o(i._printf_core) for _printf_core
    printfa.o(i.__0vfprintf) refers to fputc.o(i.fputc) for fputc
    printfa.o(i.__0vprintf) refers (Special) to iusefp.o(.text) for __I$use$fp
    printfa.o(i.__0vprintf) refers to printfa.o(i._printf_core) for _printf_core
    printfa.o(i.__0vprintf) refers to fputc.o(i.fputc) for fputc
    printfa.o(i.__0vprintf) refers to stdout.o(.data) for __stdout
    printfa.o(i.__0vsnprintf) refers (Special) to iusefp.o(.text) for __I$use$fp
    printfa.o(i.__0vsnprintf) refers to printfa.o(i._printf_core) for _printf_core
    printfa.o(i.__0vsnprintf) refers to printfa.o(i._snputc) for _snputc
    printfa.o(i.__0vsprintf) refers (Special) to iusefp.o(.text) for __I$use$fp
    printfa.o(i.__0vsprintf) refers to printfa.o(i._printf_core) for _printf_core
    printfa.o(i.__0vsprintf) refers to printfa.o(i._sputc) for _sputc
    printfa.o(i._fp_digits) refers (Special) to iusefp.o(.text) for __I$use$fp
    printfa.o(i._fp_digits) refers to dmul.o(.text) for __aeabi_dmul
    printfa.o(i._fp_digits) refers to ddiv.o(.text) for __aeabi_ddiv
    printfa.o(i._fp_digits) refers to cdrcmple.o(.text) for __aeabi_cdrcmple
    printfa.o(i._fp_digits) refers to dadd.o(.text) for __aeabi_dadd
    printfa.o(i._fp_digits) refers to dfixul.o(.text) for __aeabi_d2ulz
    printfa.o(i._fp_digits) refers to uldiv.o(.text) for __aeabi_uldivmod
    printfa.o(i._printf_core) refers (Special) to iusefp.o(.text) for __I$use$fp
    printfa.o(i._printf_core) refers to printfa.o(i._printf_pre_padding) for _printf_pre_padding
    printfa.o(i._printf_core) refers to uldiv.o(.text) for __aeabi_uldivmod
    printfa.o(i._printf_core) refers to printfa.o(i._printf_post_padding) for _printf_post_padding
    printfa.o(i._printf_core) refers to printfa.o(i._fp_digits) for _fp_digits
    printfa.o(i._printf_core) refers to uidiv.o(.text) for __aeabi_uidivmod
    printfa.o(i._printf_post_padding) refers (Special) to iusefp.o(.text) for __I$use$fp
    printfa.o(i._printf_pre_padding) refers (Special) to iusefp.o(.text) for __I$use$fp
    printfa.o(i._snputc) refers (Special) to iusefp.o(.text) for __I$use$fp
    printfa.o(i._sputc) refers (Special) to iusefp.o(.text) for __I$use$fp
    malloc.o(i.free) refers to mvars.o(.data) for __microlib_freelist
    malloc.o(i.malloc) refers to mvars.o(.data) for __microlib_freelist_initialised
    malloc.o(i.malloc) refers to mvars.o(.data) for __microlib_freelist
    malloc.o(i.malloc) refers to startup_stm32l476xx.o(HEAP) for __heap_base
    mallocr.o(i.__free$realloc) refers to mvars.o(.data) for __microlib_freelist
    mallocr.o(i.__malloc$realloc) refers to mallocr.o(i.internal_alloc) for internal_alloc
    mallocr.o(i.__malloc$realloc) refers to mvars.o(.data) for __microlib_freelist_initialised
    mallocr.o(i.__malloc$realloc) refers to startup_stm32l476xx.o(HEAP) for __heap_base
    mallocr.o(i.__malloc$realloc) refers to mvars.o(.data) for __microlib_freelist
    mallocr.o(i.internal_alloc) refers to memcpya.o(.text) for __aeabi_memcpy
    mallocr.o(i.internal_alloc) refers to mvars.o(.data) for __microlib_freelist
    mallocr.o(i.realloc) refers to mallocr.o(i.__free$realloc) for __free$realloc
    mallocr.o(i.realloc) refers to mallocr.o(i.internal_alloc) for internal_alloc
    mallocr.o(i.realloc) refers to mallocr.o(i.__malloc$realloc) for __malloc$realloc
    mallocr.o(i.realloc) refers to mvars.o(.data) for __microlib_freelist
    malloca.o(i.__aligned_malloc) refers to mvars.o(.data) for __microlib_freelist_initialised
    malloca.o(i.__aligned_malloc) refers to mvars.o(.data) for __microlib_freelist
    malloca.o(i.__aligned_malloc) refers to startup_stm32l476xx.o(HEAP) for __heap_base
    malloca.o(i.__free$memalign) refers to mvars.o(.data) for __microlib_freelist
    malloca.o(i.__malloc$memalign) refers to malloca.o(i.__aligned_malloc) for __aligned_malloc
    mallocra.o(i.__aligned_malloc$realloc) refers to mallocra.o(i.internal_alloc) for internal_alloc
    mallocra.o(i.__aligned_malloc$realloc) refers to mvars.o(.data) for __microlib_freelist_initialised
    mallocra.o(i.__aligned_malloc$realloc) refers to startup_stm32l476xx.o(HEAP) for __heap_base
    mallocra.o(i.__aligned_malloc$realloc) refers to mvars.o(.data) for __microlib_freelist
    mallocra.o(i.__free$realloc$memalign) refers to mvars.o(.data) for __microlib_freelist
    mallocra.o(i.__malloc$realloc$memalign) refers to mallocra.o(i.__aligned_malloc$realloc) for __aligned_malloc$realloc
    mallocra.o(i.__realloc$memalign) refers to mallocra.o(i.__free$realloc$memalign) for __free$realloc$memalign
    mallocra.o(i.__realloc$memalign) refers to mallocra.o(i.internal_alloc) for internal_alloc
    mallocra.o(i.__realloc$memalign) refers to mallocra.o(i.__malloc$realloc$memalign) for __malloc$realloc$memalign
    mallocra.o(i.__realloc$memalign) refers to mvars.o(.data) for __microlib_freelist
    mallocra.o(i.internal_alloc) refers to memcpya.o(.text) for __aeabi_memcpy
    mallocra.o(i.internal_alloc) refers to mvars.o(.data) for __microlib_freelist
    dadd.o(.text) refers (Special) to iusefp.o(.text) for __I$use$fp
    dadd.o(.text) refers to llshl.o(.text) for __aeabi_llsl
    dadd.o(.text) refers to llsshr.o(.text) for __aeabi_lasr
    dadd.o(.text) refers to depilogue.o(.text) for _double_epilogue
    dmul.o(.text) refers (Special) to iusefp.o(.text) for __I$use$fp
    dmul.o(.text) refers to depilogue.o(.text) for _double_epilogue
    ddiv.o(.text) refers (Special) to iusefp.o(.text) for __I$use$fp
    ddiv.o(.text) refers to depilogue.o(.text) for _double_round
    dfltui.o(.text) refers (Special) to iusefp.o(.text) for __I$use$fp
    dfltui.o(.text) refers to depilogue.o(.text) for _double_epilogue
    f2d.o(.text) refers (Special) to iusefp.o(.text) for __I$use$fp
    d2f.o(.text) refers (Special) to iusefp.o(.text) for __I$use$fp
    d2f.o(.text) refers to fepilogue.o(.text) for _float_round
    entry2.o(.ARM.Collect$$$$00000001) refers to entry2.o(.ARM.Collect$$$$00002712) for __lit__00000000
    entry2.o(.ARM.Collect$$$$00002712) refers to startup_stm32l476xx.o(STACK) for __initial_sp
    entry2.o(__vectab_stack_and_reset_area) refers to startup_stm32l476xx.o(STACK) for __initial_sp
    entry2.o(__vectab_stack_and_reset_area) refers to entry.o(.ARM.Collect$$$$00000000) for __main
    entry5.o(.ARM.Collect$$$$00000004) refers to init.o(.text) for __scatterload
    entry9a.o(.ARM.Collect$$$$0000000B) refers to main_per.o(i.main) for main
    entry9b.o(.ARM.Collect$$$$0000000C) refers to main_per.o(i.main) for main
    fputc.o(i.fputc) refers (Special) to iusesemip.o(.text) for __I$use$semihosting$fputc
    fputc.o(i.fputc) refers (Special) to semi.o(.text) for __semihosting_library_function
    uldiv.o(.text) refers to llushr.o(.text) for __aeabi_llsr
    uldiv.o(.text) refers to llshl.o(.text) for __aeabi_llsl
    depilogue.o(.text) refers to llshl.o(.text) for __aeabi_llsl
    depilogue.o(.text) refers to llushr.o(.text) for __aeabi_llsr
    dfixul.o(.text) refers to llushr.o(.text) for __aeabi_llsr
    dfixul.o(.text) refers to llshl.o(.text) for __aeabi_llsl
    init.o(.text) refers to entry5.o(.ARM.Collect$$$$00000004) for __main_after_scatterload


==============================================================================

Removing Unused input sections from the image.

    Removing apps_common.o(.rev16_text), (4 bytes).
    Removing apps_common.o(.revsh_text), (4 bytes).
    Removing apps_common.o(.rrx_text), (6 bytes).
    Removing apps_common.o(i.apps_common_lr11xx_handle_post_gnss_scan), (56 bytes).
    Removing apps_common.o(i.apps_common_lr11xx_handle_post_wifi_scan), (32 bytes).
    Removing apps_common.o(i.apps_common_lr11xx_handle_pre_gnss_scan), (56 bytes).
    Removing apps_common.o(i.apps_common_lr11xx_handle_pre_wifi_scan), (32 bytes).
    Removing apps_common.o(i.apps_common_lr11xx_radio_dbpsk_init), (864 bytes).
    Removing apps_common.o(i.apps_common_lr11xx_radio_rttof_init), (1062 bytes).
    Removing apps_common.o(i.apps_common_print_sdk_driver_version), (68 bytes).
    Removing apps_common.o(i.on_fsk_len_error), (80 bytes).
    Removing apps_common.o(i.on_rx_crc_error), (80 bytes).
    Removing apps_common.o(i.on_rx_done), (80 bytes).
    Removing apps_common.o(i.on_rx_timeout), (80 bytes).
    Removing apps_common.o(i.on_tx_done), (80 bytes).
    Removing apps_common.o(i.print_driver_version), (92 bytes).
    Removing apps_common.o(i.print_gfsk_configuration), (1088 bytes).
    Removing apps_version.o(.rev16_text), (4 bytes).
    Removing apps_version.o(.revsh_text), (4 bytes).
    Removing apps_version.o(.rrx_text), (6 bytes).
    Removing apps_version.o(i.apps_version_assert_version_is_geolocation_capable), (28 bytes).
    Removing apps_version.o(i.apps_version_assert_version_is_lr1110), (14 bytes).
    Removing apps_version.o(i.apps_version_assert_version_is_lr1120), (16 bytes).
    Removing apps_version.o(i.apps_version_fetch_check_print_version), (34 bytes).
    Removing apps_version.o(.constdata), (12 bytes).
    Removing smtc_shield_pinout_mapping.o(.rev16_text), (4 bytes).
    Removing smtc_shield_pinout_mapping.o(.revsh_text), (4 bytes).
    Removing smtc_shield_pinout_mapping.o(.rrx_text), (6 bytes).
    Removing common_version.o(i.common_version_print), (84 bytes).
    Removing common_version.o(.conststring), (7 bytes).
    Removing common_version.o(.data), (4 bytes).
    Removing uart_init.o(.rev16_text), (4 bytes).
    Removing uart_init.o(.revsh_text), (4 bytes).
    Removing uart_init.o(.rrx_text), (6 bytes).
    Removing main_per.o(.rev16_text), (4 bytes).
    Removing main_per.o(.revsh_text), (4 bytes).
    Removing main_per.o(.rrx_text), (6 bytes).
    Removing atc.o(i.ATC_IdleLineCallback), (384 bytes).
    Removing atc.o(.conststring), (66 bytes).
    Removing stm32l4xx_ll_spi.o(.rev16_text), (4 bytes).
    Removing stm32l4xx_ll_spi.o(.revsh_text), (4 bytes).
    Removing stm32l4xx_ll_spi.o(.rrx_text), (6 bytes).
    Removing stm32l4xx_ll_spi.o(i.LL_APB1_GRP1_ForceReset), (16 bytes).
    Removing stm32l4xx_ll_spi.o(i.LL_APB1_GRP1_ReleaseReset), (16 bytes).
    Removing stm32l4xx_ll_spi.o(i.LL_SPI_DeInit), (100 bytes).
    Removing stm32l4xx_ll_spi.o(i.LL_SPI_StructInit), (32 bytes).
    Removing stm32l4xx_ll_tim.o(.rev16_text), (4 bytes).
    Removing stm32l4xx_ll_tim.o(.revsh_text), (4 bytes).
    Removing stm32l4xx_ll_tim.o(.rrx_text), (6 bytes).
    Removing stm32l4xx_ll_tim.o(i.IC1Config), (52 bytes).
    Removing stm32l4xx_ll_tim.o(i.IC2Config), (56 bytes).
    Removing stm32l4xx_ll_tim.o(i.IC3Config), (58 bytes).
    Removing stm32l4xx_ll_tim.o(i.IC4Config), (58 bytes).
    Removing stm32l4xx_ll_tim.o(i.LL_APB1_GRP1_ForceReset), (16 bytes).
    Removing stm32l4xx_ll_tim.o(i.LL_APB1_GRP1_ReleaseReset), (16 bytes).
    Removing stm32l4xx_ll_tim.o(i.LL_APB2_GRP1_ForceReset), (16 bytes).
    Removing stm32l4xx_ll_tim.o(i.LL_APB2_GRP1_ReleaseReset), (16 bytes).
    Removing stm32l4xx_ll_tim.o(i.LL_TIM_BDTR_Init), (156 bytes).
    Removing stm32l4xx_ll_tim.o(i.LL_TIM_BDTR_StructInit), (26 bytes).
    Removing stm32l4xx_ll_tim.o(i.LL_TIM_DeInit), (284 bytes).
    Removing stm32l4xx_ll_tim.o(i.LL_TIM_ENCODER_Init), (104 bytes).
    Removing stm32l4xx_ll_tim.o(i.LL_TIM_ENCODER_StructInit), (36 bytes).
    Removing stm32l4xx_ll_tim.o(i.LL_TIM_HALLSENSOR_Init), (124 bytes).
    Removing stm32l4xx_ll_tim.o(i.LL_TIM_HALLSENSOR_StructInit), (12 bytes).
    Removing stm32l4xx_ll_tim.o(i.LL_TIM_IC_Init), (92 bytes).
    Removing stm32l4xx_ll_tim.o(i.LL_TIM_IC_StructInit), (18 bytes).
    Removing stm32l4xx_ll_tim.o(i.LL_TIM_Init), (216 bytes).
    Removing stm32l4xx_ll_tim.o(i.LL_TIM_OC_Init), (132 bytes).
    Removing stm32l4xx_ll_tim.o(i.LL_TIM_OC_SetCompareCH2), (4 bytes).
    Removing stm32l4xx_ll_tim.o(i.LL_TIM_OC_StructInit), (20 bytes).
    Removing stm32l4xx_ll_tim.o(i.LL_TIM_StructInit), (18 bytes).
    Removing stm32l4xx_ll_tim.o(i.OC1Config), (164 bytes).
    Removing stm32l4xx_ll_tim.o(i.OC2Config), (176 bytes).
    Removing stm32l4xx_ll_tim.o(i.OC3Config), (164 bytes).
    Removing stm32l4xx_ll_tim.o(i.OC4Config), (132 bytes).
    Removing stm32l4xx_ll_tim.o(i.OC5Config), (132 bytes).
    Removing stm32l4xx_ll_tim.o(i.OC6Config), (128 bytes).
    Removing stm32l4xx_ll_tim.o(.constdata), (45 bytes).
    Removing stm32l4xx_ll_lptim.o(.rev16_text), (4 bytes).
    Removing stm32l4xx_ll_lptim.o(.revsh_text), (4 bytes).
    Removing stm32l4xx_ll_lptim.o(.rrx_text), (6 bytes).
    Removing stm32l4xx_ll_lptim.o(i.LL_LPTIM_DeInit), (92 bytes).
    Removing stm32l4xx_ll_lptim.o(i.LL_LPTIM_Disable), (294 bytes).
    Removing stm32l4xx_ll_lptim.o(i.LL_LPTIM_Init), (52 bytes).
    Removing stm32l4xx_ll_lptim.o(i.LL_LPTIM_StructInit), (12 bytes).
    Removing stm32l4xx_ll_lptim.o(i.LL_RCC_GetLPTIMClockSource), (20 bytes).
    Removing stm32l4xx_ll_lptim.o(i.LL_RCC_SetLPTIMClockSource), (28 bytes).
    Removing stm32l4xx_ll_usart.o(.rev16_text), (4 bytes).
    Removing stm32l4xx_ll_usart.o(.revsh_text), (4 bytes).
    Removing stm32l4xx_ll_usart.o(.rrx_text), (6 bytes).
    Removing stm32l4xx_ll_usart.o(i.LL_APB1_GRP1_ForceReset), (16 bytes).
    Removing stm32l4xx_ll_usart.o(i.LL_APB1_GRP1_ReleaseReset), (16 bytes).
    Removing stm32l4xx_ll_usart.o(i.LL_USART_ClockInit), (66 bytes).
    Removing stm32l4xx_ll_usart.o(i.LL_USART_ClockStructInit), (12 bytes).
    Removing stm32l4xx_ll_usart.o(i.LL_USART_DeInit), (168 bytes).
    Removing stm32l4xx_ll_usart.o(i.LL_USART_StructInit), (26 bytes).
    Removing stm32l4xx_ll_rcc.o(.rev16_text), (4 bytes).
    Removing stm32l4xx_ll_rcc.o(.revsh_text), (4 bytes).
    Removing stm32l4xx_ll_rcc.o(.rrx_text), (6 bytes).
    Removing stm32l4xx_ll_rcc.o(i.LL_RCC_DeInit), (224 bytes).
    Removing stm32l4xx_ll_rcc.o(i.LL_RCC_GetADCClockFreq), (120 bytes).
    Removing stm32l4xx_ll_rcc.o(i.LL_RCC_GetDFSDMClockFreq), (68 bytes).
    Removing stm32l4xx_ll_rcc.o(i.LL_RCC_GetI2CClockFreq), (252 bytes).
    Removing stm32l4xx_ll_rcc.o(i.LL_RCC_GetI2CClockSource), (40 bytes).
    Removing stm32l4xx_ll_rcc.o(i.LL_RCC_GetLPTIMClockFreq), (208 bytes).
    Removing stm32l4xx_ll_rcc.o(i.LL_RCC_GetLPTIMClockSource), (20 bytes).
    Removing stm32l4xx_ll_rcc.o(i.LL_RCC_GetLPUARTClockFreq), (108 bytes).
    Removing stm32l4xx_ll_rcc.o(i.LL_RCC_GetRNGClockFreq), (168 bytes).
    Removing stm32l4xx_ll_rcc.o(i.LL_RCC_GetSAIClockFreq), (228 bytes).
    Removing stm32l4xx_ll_rcc.o(i.LL_RCC_GetSAIClockSource), (20 bytes).
    Removing stm32l4xx_ll_rcc.o(i.LL_RCC_GetSDMMCClockFreq), (168 bytes).
    Removing stm32l4xx_ll_rcc.o(i.LL_RCC_GetSWPMIClockFreq), (72 bytes).
    Removing stm32l4xx_ll_rcc.o(i.LL_RCC_GetSystemClocksFreq), (36 bytes).
    Removing stm32l4xx_ll_rcc.o(i.LL_RCC_GetUSBClockFreq), (168 bytes).
    Removing stm32l4xx_ll_rcc.o(i.LL_RCC_LSI_IsReady), (16 bytes).
    Removing stm32l4xx_ll_rcc.o(i.LL_RCC_MSI_IsReady), (16 bytes).
    Removing stm32l4xx_ll_rcc.o(i.LL_RCC_PLLSAI1_GetN), (16 bytes).
    Removing stm32l4xx_ll_rcc.o(i.LL_RCC_PLLSAI1_IsEnabledDomain_48M), (16 bytes).
    Removing stm32l4xx_ll_rcc.o(i.LL_RCC_PLLSAI1_IsEnabledDomain_SAI), (16 bytes).
    Removing stm32l4xx_ll_rcc.o(i.LL_RCC_PLLSAI1_IsReady), (16 bytes).
    Removing stm32l4xx_ll_rcc.o(i.LL_RCC_PLLSAI2_GetN), (16 bytes).
    Removing stm32l4xx_ll_rcc.o(i.LL_RCC_PLLSAI2_IsEnabledDomain_SAI), (16 bytes).
    Removing stm32l4xx_ll_rcc.o(i.LL_RCC_PLLSAI2_IsReady), (16 bytes).
    Removing stm32l4xx_ll_rcc.o(i.LL_RCC_PLL_IsEnabledDomain_48M), (16 bytes).
    Removing stm32l4xx_ll_rcc.o(i.LL_RCC_PLL_IsEnabledDomain_SAI), (16 bytes).
    Removing stm32l4xx_ll_rcc.o(i.LL_RCC_PLL_IsReady), (16 bytes).
    Removing stm32l4xx_ll_rcc.o(i.RCC_PLLSAI1_GetFreqDomain_48M), (212 bytes).
    Removing stm32l4xx_ll_rcc.o(i.RCC_PLLSAI1_GetFreqDomain_ADC), (212 bytes).
    Removing stm32l4xx_ll_rcc.o(i.RCC_PLLSAI1_GetFreqDomain_SAI), (212 bytes).
    Removing stm32l4xx_ll_rcc.o(i.RCC_PLLSAI2_GetFreqDomain_ADC), (216 bytes).
    Removing stm32l4xx_ll_rcc.o(i.RCC_PLLSAI2_GetFreqDomain_SAI), (212 bytes).
    Removing stm32l4xx_ll_rcc.o(i.RCC_PLL_GetFreqDomain_48M), (212 bytes).
    Removing stm32l4xx_ll_rcc.o(i.RCC_PLL_GetFreqDomain_SAI), (212 bytes).
    Removing stm32l4xx_ll_gpio.o(.rev16_text), (4 bytes).
    Removing stm32l4xx_ll_gpio.o(.revsh_text), (4 bytes).
    Removing stm32l4xx_ll_gpio.o(.rrx_text), (6 bytes).
    Removing stm32l4xx_ll_gpio.o(i.LL_AHB2_GRP1_ForceReset), (16 bytes).
    Removing stm32l4xx_ll_gpio.o(i.LL_AHB2_GRP1_ReleaseReset), (16 bytes).
    Removing stm32l4xx_ll_gpio.o(i.LL_GPIO_DeInit), (200 bytes).
    Removing stm32l4xx_ll_gpio.o(i.LL_GPIO_StructInit), (22 bytes).
    Removing stm32l4xx_ll_pwr.o(.rev16_text), (4 bytes).
    Removing stm32l4xx_ll_pwr.o(.revsh_text), (4 bytes).
    Removing stm32l4xx_ll_pwr.o(.rrx_text), (6 bytes).
    Removing stm32l4xx_ll_pwr.o(i.LL_PWR_DeInit), (36 bytes).
    Removing stm32l4xx_ll_exti.o(.rev16_text), (4 bytes).
    Removing stm32l4xx_ll_exti.o(.revsh_text), (4 bytes).
    Removing stm32l4xx_ll_exti.o(.rrx_text), (6 bytes).
    Removing stm32l4xx_ll_exti.o(i.LL_EXTI_DeInit), (76 bytes).
    Removing stm32l4xx_ll_exti.o(i.LL_EXTI_StructInit), (16 bytes).
    Removing stm32l4xx_ll_utils.o(.rev16_text), (4 bytes).
    Removing stm32l4xx_ll_utils.o(.revsh_text), (4 bytes).
    Removing stm32l4xx_ll_utils.o(.rrx_text), (6 bytes).
    Removing stm32l4xx_ll_utils.o(i.LL_PLL_ConfigSystemClock_HSE), (140 bytes).
    Removing stm32l4xx_ll_utils.o(i.LL_PLL_ConfigSystemClock_HSI), (96 bytes).
    Removing stm32l4xx_ll_utils.o(i.LL_PLL_ConfigSystemClock_MSI), (260 bytes).
    Removing stm32l4xx_ll_utils.o(i.LL_RCC_HSE_IsReady), (16 bytes).
    Removing stm32l4xx_ll_utils.o(i.LL_RCC_HSI_IsReady), (16 bytes).
    Removing stm32l4xx_ll_utils.o(i.LL_RCC_MSI_IsEnabledRangeSelect), (16 bytes).
    Removing stm32l4xx_ll_utils.o(i.LL_RCC_MSI_IsReady), (16 bytes).
    Removing stm32l4xx_ll_utils.o(i.LL_RCC_PLL_ConfigDomain_SYS), (36 bytes).
    Removing stm32l4xx_ll_utils.o(i.LL_RCC_PLL_IsReady), (16 bytes).
    Removing stm32l4xx_ll_utils.o(i.LL_SetFlashLatency), (196 bytes).
    Removing stm32l4xx_ll_utils.o(i.UTILS_EnablePLLAndSwitchSystem), (212 bytes).
    Removing stm32l4xx_ll_utils.o(i.UTILS_GetPLLOutputFrequency), (38 bytes).
    Removing stm32l4xx_ll_utils.o(i.UTILS_PLL_IsBusy), (48 bytes).
    Removing system_stm32l4xx.o(.rev16_text), (4 bytes).
    Removing system_stm32l4xx.o(.revsh_text), (4 bytes).
    Removing system_stm32l4xx.o(.rrx_text), (6 bytes).
    Removing system_stm32l4xx.o(i.SystemCoreClockUpdate), (224 bytes).
    Removing lr11xx_bootloader.o(i.lr11xx_bootloader_clear_reset_status_info), (32 bytes).
    Removing lr11xx_bootloader.o(i.lr11xx_bootloader_erase_flash), (32 bytes).
    Removing lr11xx_bootloader.o(i.lr11xx_bootloader_get_min_from_operand_and_max_block_size), (14 bytes).
    Removing lr11xx_bootloader.o(i.lr11xx_bootloader_get_status), (114 bytes).
    Removing lr11xx_bootloader.o(i.lr11xx_bootloader_get_version), (72 bytes).
    Removing lr11xx_bootloader.o(i.lr11xx_bootloader_read_chip_eui), (36 bytes).
    Removing lr11xx_bootloader.o(i.lr11xx_bootloader_read_join_eui), (36 bytes).
    Removing lr11xx_bootloader.o(i.lr11xx_bootloader_read_pin), (36 bytes).
    Removing lr11xx_bootloader.o(i.lr11xx_bootloader_reboot), (48 bytes).
    Removing lr11xx_bootloader.o(i.lr11xx_bootloader_write_flash_encrypted), (132 bytes).
    Removing lr11xx_bootloader.o(i.lr11xx_bootloader_write_flash_encrypted_full), (96 bytes).
    Removing lr11xx_crypto_engine.o(i.lr11xx_crypto_aes_decrypt), (124 bytes).
    Removing lr11xx_crypto_engine.o(i.lr11xx_crypto_aes_encrypt), (124 bytes).
    Removing lr11xx_crypto_engine.o(i.lr11xx_crypto_aes_encrypt_01), (124 bytes).
    Removing lr11xx_crypto_engine.o(i.lr11xx_crypto_check_encrypted_firmware_image), (132 bytes).
    Removing lr11xx_crypto_engine.o(i.lr11xx_crypto_check_encrypted_firmware_image_full), (96 bytes).
    Removing lr11xx_crypto_engine.o(i.lr11xx_crypto_compute_aes_cmac), (114 bytes).
    Removing lr11xx_crypto_engine.o(i.lr11xx_crypto_derive_key), (106 bytes).
    Removing lr11xx_crypto_engine.o(i.lr11xx_crypto_fill_cbuffer_opcode_key_data), (34 bytes).
    Removing lr11xx_crypto_engine.o(i.lr11xx_crypto_get_check_encrypted_firmware_image_result), (36 bytes).
    Removing lr11xx_crypto_engine.o(i.lr11xx_crypto_get_min_from_operand_and_max_block_size), (14 bytes).
    Removing lr11xx_crypto_engine.o(i.lr11xx_crypto_get_parameter), (94 bytes).
    Removing lr11xx_crypto_engine.o(i.lr11xx_crypto_process_join_accept), (186 bytes).
    Removing lr11xx_crypto_engine.o(i.lr11xx_crypto_restore_from_flash), (54 bytes).
    Removing lr11xx_crypto_engine.o(i.lr11xx_crypto_select), (42 bytes).
    Removing lr11xx_crypto_engine.o(i.lr11xx_crypto_set_key), (96 bytes).
    Removing lr11xx_crypto_engine.o(i.lr11xx_crypto_set_parameter), (90 bytes).
    Removing lr11xx_crypto_engine.o(i.lr11xx_crypto_store_to_flash), (54 bytes).
    Removing lr11xx_crypto_engine.o(i.lr11xx_crypto_verify_aes_cmac), (132 bytes).
    Removing lr11xx_driver_version.o(i.lr11xx_driver_version_get_version_string), (12 bytes).
    Removing lr11xx_gnss.o(i.lr11xx_gnss_almanac_update), (102 bytes).
    Removing lr11xx_gnss.o(i.lr11xx_gnss_almanac_update_from_sat), (44 bytes).
    Removing lr11xx_gnss.o(i.lr11xx_gnss_compute_almanac_age), (10 bytes).
    Removing lr11xx_gnss.o(i.lr11xx_gnss_compute_power_consumption), (2772 bytes).
    Removing lr11xx_gnss.o(i.lr11xx_gnss_config_almanac_update_period), (64 bytes).
    Removing lr11xx_gnss.o(i.lr11xx_gnss_config_delay_reset_assistance_position), (60 bytes).
    Removing lr11xx_gnss.o(i.lr11xx_gnss_fetch_time), (44 bytes).
    Removing lr11xx_gnss.o(i.lr11xx_gnss_get_almanac_address_size), (76 bytes).
    Removing lr11xx_gnss.o(i.lr11xx_gnss_get_almanac_age_for_satellite), (98 bytes).
    Removing lr11xx_gnss.o(i.lr11xx_gnss_get_context_status), (36 bytes).
    Removing lr11xx_gnss.o(i.lr11xx_gnss_get_detected_satellites), (140 bytes).
    Removing lr11xx_gnss.o(i.lr11xx_gnss_get_min_from_operand_and_max_nb_of_blocks), (14 bytes).
    Removing lr11xx_gnss.o(i.lr11xx_gnss_get_nb_detected_satellites), (36 bytes).
    Removing lr11xx_gnss.o(i.lr11xx_gnss_get_nb_visible_satellites), (196 bytes).
    Removing lr11xx_gnss.o(i.lr11xx_gnss_get_result_destination), (50 bytes).
    Removing lr11xx_gnss.o(i.lr11xx_gnss_get_result_size), (60 bytes).
    Removing lr11xx_gnss.o(i.lr11xx_gnss_get_sv_sync), (44 bytes).
    Removing lr11xx_gnss.o(i.lr11xx_gnss_get_visible_satellites), (144 bytes).
    Removing lr11xx_gnss.o(i.lr11xx_gnss_parse_context_status_buffer), (84 bytes).
    Removing lr11xx_gnss.o(i.lr11xx_gnss_push_dmc_msg), (36 bytes).
    Removing lr11xx_gnss.o(i.lr11xx_gnss_push_solver_msg), (36 bytes).
    Removing lr11xx_gnss.o(i.lr11xx_gnss_read_almanac), (174 bytes).
    Removing lr11xx_gnss.o(i.lr11xx_gnss_read_almanac_per_satellites), (56 bytes).
    Removing lr11xx_gnss.o(i.lr11xx_gnss_read_almanac_status), (236 bytes).
    Removing lr11xx_gnss.o(i.lr11xx_gnss_read_almanac_update), (36 bytes).
    Removing lr11xx_gnss.o(i.lr11xx_gnss_read_almanac_update_period), (82 bytes).
    Removing lr11xx_gnss.o(i.lr11xx_gnss_read_assistance_position), (152 bytes).
    Removing lr11xx_gnss.o(i.lr11xx_gnss_read_cumulative_timing), (316 bytes).
    Removing lr11xx_gnss.o(i.lr11xx_gnss_read_delay_reset_assistance_position), (68 bytes).
    Removing lr11xx_gnss.o(i.lr11xx_gnss_read_demod_status), (124 bytes).
    Removing lr11xx_gnss.o(i.lr11xx_gnss_read_doppler_solver_result), (176 bytes).
    Removing lr11xx_gnss.o(i.lr11xx_gnss_read_firmware_version), (56 bytes).
    Removing lr11xx_gnss.o(i.lr11xx_gnss_read_freq_search_space), (36 bytes).
    Removing lr11xx_gnss.o(i.lr11xx_gnss_read_gnss_rssi_test), (56 bytes).
    Removing lr11xx_gnss.o(i.lr11xx_gnss_read_keep_sync_status), (76 bytes).
    Removing lr11xx_gnss.o(i.lr11xx_gnss_read_last_scan_mode_launched), (48 bytes).
    Removing lr11xx_gnss.o(i.lr11xx_gnss_read_results), (36 bytes).
    Removing lr11xx_gnss.o(i.lr11xx_gnss_read_supported_constellations), (36 bytes).
    Removing lr11xx_gnss.o(i.lr11xx_gnss_read_time), (112 bytes).
    Removing lr11xx_gnss.o(i.lr11xx_gnss_read_used_constellations), (36 bytes).
    Removing lr11xx_gnss.o(i.lr11xx_gnss_read_week_number_rollover), (60 bytes).
    Removing lr11xx_gnss.o(i.lr11xx_gnss_reset_position), (32 bytes).
    Removing lr11xx_gnss.o(i.lr11xx_gnss_reset_time), (32 bytes).
    Removing lr11xx_gnss.o(i.lr11xx_gnss_scan), (56 bytes).
    Removing lr11xx_gnss.o(i.lr11xx_gnss_set_almanac_update), (40 bytes).
    Removing lr11xx_gnss.o(i.lr11xx_gnss_set_assistance_position), (136 bytes).
    Removing lr11xx_gnss.o(i.lr11xx_gnss_set_beidou_bit_mask_sat_activated), (96 bytes).
    Removing lr11xx_gnss.o(i.lr11xx_gnss_set_constellations_to_use), (40 bytes).
    Removing lr11xx_gnss.o(i.lr11xx_gnss_set_freq_search_space), (40 bytes).
    Removing lr11xx_gnss.o(i.lr11xx_gnss_set_gps_bit_mask_sat_activated), (64 bytes).
    Removing lr11xx_gnss.o(i.lr11xx_gnss_set_scan_mode), (40 bytes).
    Removing lr11xx_gnss.o(i.lr11xx_gnss_set_time), (80 bytes).
    Removing lr11xx_gnss.o(i.lr11xx_gnss_uint8_to_uint32), (24 bytes).
    Removing lr11xx_lr_fhss.o(i.lr11xx_lr_fhss_build_frame), (136 bytes).
    Removing lr11xx_lr_fhss.o(i.lr11xx_lr_fhss_get_bit_delay_in_us), (38 bytes).
    Removing lr11xx_lr_fhss.o(i.lr11xx_lr_fhss_get_hop_sequence_count), (30 bytes).
    Removing lr11xx_lr_fhss.o(i.lr11xx_lr_fhss_get_nb_bits), (144 bytes).
    Removing lr11xx_lr_fhss.o(i.lr11xx_lr_fhss_get_time_on_air_in_ms), (28 bytes).
    Removing lr11xx_lr_fhss.o(i.lr11xx_lr_fhss_init), (48 bytes).
    Removing lr11xx_lr_fhss.o(.constdata), (8 bytes).
    Removing lr11xx_radio.o(i.lr11xx_radio_auto_tx_rx), (96 bytes).
    Removing lr11xx_radio.o(i.lr11xx_radio_cfg_and_send_bluetooth_low_energy_beaconning_compatibility), (44 bytes).
    Removing lr11xx_radio.o(i.lr11xx_radio_cfg_bluetooth_low_energy_beaconning_compatibility), (44 bytes).
    Removing lr11xx_radio.o(i.lr11xx_radio_convert_nb_symb_to_mant_exp), (44 bytes).
    Removing lr11xx_radio.o(i.lr11xx_radio_get_gfsk_pkt_status), (136 bytes).
    Removing lr11xx_radio.o(i.lr11xx_radio_get_gfsk_rx_bandwidth), (320 bytes).
    Removing lr11xx_radio.o(i.lr11xx_radio_get_gfsk_stats), (92 bytes).
    Removing lr11xx_radio.o(i.lr11xx_radio_get_lora_rx_info), (68 bytes).
    Removing lr11xx_radio.o(i.lr11xx_radio_get_lora_stats), (104 bytes).
    Removing lr11xx_radio.o(i.lr11xx_radio_get_pkt_type), (52 bytes).
    Removing lr11xx_radio.o(i.lr11xx_radio_get_rssi_inst), (56 bytes).
    Removing lr11xx_radio.o(i.lr11xx_radio_reset_stats), (32 bytes).
    Removing lr11xx_radio.o(i.lr11xx_radio_set_bpsk_mod_params), (76 bytes).
    Removing lr11xx_radio.o(i.lr11xx_radio_set_bpsk_pkt_params), (96 bytes).
    Removing lr11xx_radio.o(i.lr11xx_radio_set_cad), (60 bytes).
    Removing lr11xx_radio.o(i.lr11xx_radio_set_cad_params), (92 bytes).
    Removing lr11xx_radio.o(i.lr11xx_radio_set_gfsk_crc_params), (96 bytes).
    Removing lr11xx_radio.o(i.lr11xx_radio_set_gfsk_mod_params), (120 bytes).
    Removing lr11xx_radio.o(i.lr11xx_radio_set_gfsk_pkt_params), (104 bytes).
    Removing lr11xx_radio.o(i.lr11xx_radio_set_gfsk_sync_word), (96 bytes).
    Removing lr11xx_radio.o(i.lr11xx_radio_set_gfsk_whitening_seed), (48 bytes).
    Removing lr11xx_radio.o(i.lr11xx_radio_set_lora_public_network), (44 bytes).
    Removing lr11xx_radio.o(i.lr11xx_radio_set_lora_sync_timeout), (72 bytes).
    Removing lr11xx_radio.o(i.lr11xx_radio_set_lora_sync_timeout_with_mantissa_exponent), (60 bytes).
    Removing lr11xx_radio.o(i.lr11xx_radio_set_lr_fhss_mod_params), (76 bytes).
    Removing lr11xx_radio.o(i.lr11xx_radio_set_lr_fhss_sync_word), (36 bytes).
    Removing lr11xx_radio.o(i.lr11xx_radio_set_pkt_address), (44 bytes).
    Removing lr11xx_radio.o(i.lr11xx_radio_set_rx_and_lna_mode), (32 bytes).
    Removing lr11xx_radio.o(i.lr11xx_radio_set_rx_duty_cycle), (44 bytes).
    Removing lr11xx_radio.o(i.lr11xx_radio_set_rx_duty_cycle_with_timings_in_rtc_step), (96 bytes).
    Removing lr11xx_radio.o(i.lr11xx_radio_set_tx_cw), (32 bytes).
    Removing lr11xx_radio.o(i.lr11xx_radio_set_tx_infinite_preamble), (60 bytes).
    Removing lr11xx_radio.o(i.lr11xx_radio_stop_timeout_on_preamble), (40 bytes).
    Removing lr11xx_radio.o(.constdata), (10 bytes).
    Removing lr11xx_rttof.o(i.lr11xx_rttof_distance_raw_to_meter), (84 bytes).
    Removing lr11xx_rttof.o(i.lr11xx_rttof_get_raw_result), (40 bytes).
    Removing lr11xx_rttof.o(i.lr11xx_rttof_set_address), (72 bytes).
    Removing lr11xx_rttof.o(i.lr11xx_rttof_set_parameters), (40 bytes).
    Removing lr11xx_rttof.o(i.lr11xx_rttof_set_request_address), (64 bytes).
    Removing lr11xx_rttof.o(i.lr11xx_rttof_set_rx_tx_delay_indicator), (64 bytes).
    Removing lr11xx_radio_timings.o(i.lr11xx_radio_timings_get_delay_between_last_bit_sent_and_rx_done_in_us), (30 bytes).
    Removing lr11xx_radio_timings.o(i.lr11xx_radio_timings_get_delay_between_last_bit_sent_and_tx_done_in_us), (14 bytes).
    Removing lr11xx_radio_timings.o(i.lr11xx_radio_timings_get_lora_rx_input_delay_in_us), (30 bytes).
    Removing lr11xx_radio_timings.o(i.lr11xx_radio_timings_get_lora_symb_time_in_us), (32 bytes).
    Removing lr11xx_radio_timings.o(i.lr11xx_radio_timings_get_pa_ramp_time_in_us), (98 bytes).
    Removing lr11xx_regmem.o(i.lr11xx_regmem_clear_rxbuffer), (32 bytes).
    Removing lr11xx_regmem.o(i.lr11xx_regmem_fill_cbuffer_cdata_opcode_address_data), (40 bytes).
    Removing lr11xx_regmem.o(i.lr11xx_regmem_fill_cbuffer_opcode_address_length), (28 bytes).
    Removing lr11xx_regmem.o(i.lr11xx_regmem_fill_cdata), (54 bytes).
    Removing lr11xx_regmem.o(i.lr11xx_regmem_fill_out_buffer_from_raw_buffer), (48 bytes).
    Removing lr11xx_regmem.o(i.lr11xx_regmem_read_mem8), (40 bytes).
    Removing lr11xx_regmem.o(i.lr11xx_regmem_read_regmem32), (82 bytes).
    Removing lr11xx_regmem.o(i.lr11xx_regmem_write_mem8), (38 bytes).
    Removing lr11xx_regmem.o(i.lr11xx_regmem_write_regmem32), (58 bytes).
    Removing lr11xx_system.o(i.lr11xx_system_abort_blocking_cmd), (12 bytes).
    Removing lr11xx_system.o(i.lr11xx_system_calibrate_image), (44 bytes).
    Removing lr11xx_system.o(i.lr11xx_system_calibrate_image_in_mhz), (48 bytes).
    Removing lr11xx_system.o(i.lr11xx_system_clear_reset_status_info), (32 bytes).
    Removing lr11xx_system.o(i.lr11xx_system_drive_dio_in_sleep_mode), (40 bytes).
    Removing lr11xx_system.o(i.lr11xx_system_enable_spi_crc), (40 bytes).
    Removing lr11xx_system.o(i.lr11xx_system_erase_infopage), (40 bytes).
    Removing lr11xx_system.o(i.lr11xx_system_get_random_number), (36 bytes).
    Removing lr11xx_system.o(i.lr11xx_system_get_temp), (60 bytes).
    Removing lr11xx_system.o(i.lr11xx_system_get_vbat), (36 bytes).
    Removing lr11xx_system.o(i.lr11xx_system_read_infopage), (126 bytes).
    Removing lr11xx_system.o(i.lr11xx_system_read_join_eui), (36 bytes).
    Removing lr11xx_system.o(i.lr11xx_system_read_pin), (36 bytes).
    Removing lr11xx_system.o(i.lr11xx_system_read_pin_custom_eui), (172 bytes).
    Removing lr11xx_system.o(i.lr11xx_system_read_uid), (36 bytes).
    Removing lr11xx_system.o(i.lr11xx_system_reboot), (48 bytes).
    Removing lr11xx_system.o(i.lr11xx_system_set_fs), (32 bytes).
    Removing lr11xx_system.o(i.lr11xx_system_set_sleep), (88 bytes).
    Removing lr11xx_system.o(i.lr11xx_system_set_standby), (40 bytes).
    Removing lr11xx_system.o(i.lr11xx_system_wakeup), (12 bytes).
    Removing lr11xx_system.o(i.lr11xx_system_write_infopage), (120 bytes).
    Removing lr11xx_wifi.o(i.fetch_and_aggregate_all_results), (194 bytes).
    Removing lr11xx_wifi.o(i.generic_results_interpreter), (78 bytes).
    Removing lr11xx_wifi.o(i.interpret_basic_complete_result_from_buffer), (124 bytes).
    Removing lr11xx_wifi.o(i.interpret_basic_mac_type_channel_result_from_buffer), (74 bytes).
    Removing lr11xx_wifi.o(i.interpret_extended_full_result_from_buffer), (326 bytes).
    Removing lr11xx_wifi.o(i.lr11xx_wifi_are_scan_mode_result_format_compatible), (58 bytes).
    Removing lr11xx_wifi.o(i.lr11xx_wifi_cfg_timestamp_ap_phone), (64 bytes).
    Removing lr11xx_wifi.o(i.lr11xx_wifi_extract_channel_from_info_byte), (8 bytes).
    Removing lr11xx_wifi.o(i.lr11xx_wifi_extract_signal_type_from_data_rate_info), (8 bytes).
    Removing lr11xx_wifi.o(i.lr11xx_wifi_get_consumption_nah), (260 bytes).
    Removing lr11xx_wifi.o(i.lr11xx_wifi_get_format_code), (32 bytes).
    Removing lr11xx_wifi.o(i.lr11xx_wifi_get_nb_country_code_results), (52 bytes).
    Removing lr11xx_wifi.o(i.lr11xx_wifi_get_nb_results), (36 bytes).
    Removing lr11xx_wifi.o(i.lr11xx_wifi_get_nb_results_max_per_chunk), (4 bytes).
    Removing lr11xx_wifi.o(i.lr11xx_wifi_get_result_size_from_format), (32 bytes).
    Removing lr11xx_wifi.o(i.lr11xx_wifi_is_well_formed_utf8_byte_sequence), (462 bytes).
    Removing lr11xx_wifi.o(i.lr11xx_wifi_parse_channel_info), (30 bytes).
    Removing lr11xx_wifi.o(i.lr11xx_wifi_parse_data_rate_info), (20 bytes).
    Removing lr11xx_wifi.o(i.lr11xx_wifi_parse_frame_type_info), (28 bytes).
    Removing lr11xx_wifi.o(i.lr11xx_wifi_read_basic_complete_results), (68 bytes).
    Removing lr11xx_wifi.o(i.lr11xx_wifi_read_basic_mac_type_channel_results), (64 bytes).
    Removing lr11xx_wifi.o(i.lr11xx_wifi_read_country_code_results), (184 bytes).
    Removing lr11xx_wifi.o(i.lr11xx_wifi_read_cumulative_timing), (176 bytes).
    Removing lr11xx_wifi.o(i.lr11xx_wifi_read_extended_full_results), (68 bytes).
    Removing lr11xx_wifi.o(i.lr11xx_wifi_read_mac_address_from_buffer), (24 bytes).
    Removing lr11xx_wifi.o(i.lr11xx_wifi_read_results_helper), (90 bytes).
    Removing lr11xx_wifi.o(i.lr11xx_wifi_read_version), (56 bytes).
    Removing lr11xx_wifi.o(i.lr11xx_wifi_reset_cumulative_timing), (32 bytes).
    Removing lr11xx_wifi.o(i.lr11xx_wifi_scan), (114 bytes).
    Removing lr11xx_wifi.o(i.lr11xx_wifi_scan_time_limit), (116 bytes).
    Removing lr11xx_wifi.o(i.lr11xx_wifi_search_country_code), (96 bytes).
    Removing lr11xx_wifi.o(i.lr11xx_wifi_search_country_code_time_limit), (100 bytes).
    Removing lr11xx_wifi.o(i.uint16_from_array), (16 bytes).
    Removing lr11xx_wifi.o(i.uint64_from_array), (116 bytes).
    Removing smtc_hal_mcu_gpio_stm32l4.o(.rev16_text), (4 bytes).
    Removing smtc_hal_mcu_gpio_stm32l4.o(.revsh_text), (4 bytes).
    Removing smtc_hal_mcu_gpio_stm32l4.o(.rrx_text), (6 bytes).
    Removing smtc_hal_mcu_gpio_stm32l4.o(i.LL_AHB2_GRP1_DisableClock), (16 bytes).
    Removing smtc_hal_mcu_gpio_stm32l4.o(i.LL_AHB2_GRP1_IsEnabledClock), (24 bytes).
    Removing smtc_hal_mcu_gpio_stm32l4.o(i.smtc_hal_mcu_gpio_deinit), (136 bytes).
    Removing smtc_hal_mcu_gpio_stm32l4.o(i.smtc_hal_mcu_gpio_disable_irq), (104 bytes).
    Removing smtc_hal_mcu_gpio_stm32l4.o(i.smtc_hal_mcu_gpio_stm32l4_disable_clock), (152 bytes).
    Removing smtc_hal_mcu_gpio_stm32l4.o(i.smtc_hal_mcu_gpio_stm32l4_is_clock_enabled), (176 bytes).
    Removing smtc_hal_mcu_rng_stm32l4.o(.rev16_text), (4 bytes).
    Removing smtc_hal_mcu_rng_stm32l4.o(.revsh_text), (4 bytes).
    Removing smtc_hal_mcu_rng_stm32l4.o(.rrx_text), (6 bytes).
    Removing smtc_hal_mcu_rng_stm32l4.o(i.LL_RCC_PLLSAI1_ConfigDomain_48M), (48 bytes).
    Removing smtc_hal_mcu_rng_stm32l4.o(i.LL_RCC_SetRNGClockSource), (24 bytes).
    Removing smtc_hal_mcu_rng_stm32l4.o(i.smtc_hal_mcu_rng_deinit), (116 bytes).
    Removing smtc_hal_mcu_rng_stm32l4.o(i.smtc_hal_mcu_rng_get_bytes), (132 bytes).
    Removing smtc_hal_mcu_rng_stm32l4.o(i.smtc_hal_mcu_rng_init), (172 bytes).
    Removing smtc_hal_mcu_rng_stm32l4.o(i.smtc_hal_mcu_rng_stm32l4_get_free_slot), (36 bytes).
    Removing smtc_hal_mcu_rng_stm32l4.o(i.smtc_hal_mcu_rng_stm32l4_is_real_inst), (36 bytes).
    Removing smtc_hal_mcu_rng_stm32l4.o(.data), (8 bytes).
    Removing smtc_hal_mcu_uart_stm32l4.o(.rev16_text), (4 bytes).
    Removing smtc_hal_mcu_uart_stm32l4.o(.revsh_text), (4 bytes).
    Removing smtc_hal_mcu_uart_stm32l4.o(.rrx_text), (6 bytes).
    Removing smtc_hal_mcu_uart_stm32l4.o(i.LL_USART_ReceiveData8), (8 bytes).
    Removing smtc_hal_mcu_uart_stm32l4.o(i.smtc_hal_mcu_uart_deinit), (140 bytes).
    Removing smtc_hal_mcu_uart_stm32l4.o(i.smtc_hal_mcu_uart_receive), (46 bytes).
    Removing smtc_hal_mcu_uart_stm32l4.o(i.smtc_hal_mcu_uart_stm32l4_is_real_inst), (40 bytes).
    Removing smtc_hal_mcu_timer_stm32l4.o(.rev16_text), (4 bytes).
    Removing smtc_hal_mcu_timer_stm32l4.o(.revsh_text), (4 bytes).
    Removing smtc_hal_mcu_timer_stm32l4.o(.rrx_text), (6 bytes).
    Removing smtc_hal_mcu_timer_stm32l4.o(i.LL_LPTIM_ClearFlag_ARROK), (10 bytes).
    Removing smtc_hal_mcu_timer_stm32l4.o(i.LL_LPTIM_GetCounter), (8 bytes).
    Removing smtc_hal_mcu_timer_stm32l4.o(i.LL_LPTIM_IsEnabled), (10 bytes).
    Removing smtc_hal_mcu_timer_stm32l4.o(i.smtc_hal_mcu_timer_get_max_value), (34 bytes).
    Removing smtc_hal_mcu_timer_stm32l4.o(i.smtc_hal_mcu_timer_get_remaining_time), (136 bytes).
    Removing smtc_hal_mcu_timer_stm32l4.o(i.smtc_hal_mcu_timer_init), (304 bytes).
    Removing smtc_hal_mcu_timer_stm32l4.o(i.smtc_hal_mcu_timer_start), (152 bytes).
    Removing smtc_hal_mcu_timer_stm32l4.o(i.smtc_hal_mcu_timer_stm32l4_get_free_slot), (36 bytes).
    Removing smtc_hal_mcu_timer_stm32l4.o(i.smtc_hal_mcu_timer_stm32l4_is_configured), (52 bytes).
    Removing smtc_hal_mcu_timer_stm32l4.o(i.smtc_hal_mcu_timer_stm32l4_is_real_inst), (36 bytes).
    Removing smtc_hal_mcu_timer_stm32l4.o(i.smtc_hal_mcu_timer_stop), (88 bytes).
    Removing smtc_hal_mcu_timer_stm32l4.o(.constdata), (16 bytes).
    Removing smtc_hal_mcu_stm32l4.o(.rev16_text), (4 bytes).
    Removing smtc_hal_mcu_stm32l4.o(.revsh_text), (4 bytes).
    Removing smtc_hal_mcu_stm32l4.o(.rrx_text), (6 bytes).
    Removing smtc_hal_mcu_spi_stm32l4.o(.rev16_text), (4 bytes).
    Removing smtc_hal_mcu_spi_stm32l4.o(.revsh_text), (4 bytes).
    Removing smtc_hal_mcu_spi_stm32l4.o(.rrx_text), (6 bytes).
    Removing smtc_hal_mcu_spi_stm32l4.o(i.smtc_hal_mcu_spi_deinit), (100 bytes).
    Removing lr11xx_hal.o(.rev16_text), (4 bytes).
    Removing lr11xx_hal.o(.revsh_text), (4 bytes).
    Removing lr11xx_hal.o(.rrx_text), (6 bytes).
    Removing lr11xx_hal.o(i.lr11xx_hal_abort_blocking_cmd), (48 bytes).
    Removing lr11xx_hal.o(i.lr11xx_hal_wakeup), (32 bytes).
    Removing smtc_shield_lr11x0_common.o(i.smtc_shield_lr11x0_common_gnss_consumption_instantaneous_value), (74 bytes).
    Removing smtc_dbpsk.o(i.smtc_dbpsk_encode_buffer), (156 bytes).
    Removing lr11xx_bootloader_types_str.o(i.lr11xx_bootloader_chip_modes_to_str), (300 bytes).
    Removing lr11xx_bootloader_types_str.o(i.lr11xx_bootloader_command_status_to_str), (188 bytes).
    Removing lr11xx_bootloader_types_str.o(i.lr11xx_bootloader_reset_status_to_str), (348 bytes).
    Removing lr11xx_crypto_engine_types_str.o(i.lr11xx_crypto_element_to_str), (108 bytes).
    Removing lr11xx_crypto_engine_types_str.o(i.lr11xx_crypto_keys_idx_to_str), (1144 bytes).
    Removing lr11xx_crypto_engine_types_str.o(i.lr11xx_crypto_lorawan_version_to_str), (104 bytes).
    Removing lr11xx_crypto_engine_types_str.o(i.lr11xx_crypto_status_to_str), (236 bytes).
    Removing lr11xx_gnss_types_str.o(i.lr11xx_gnss_almanac_status_to_str), (276 bytes).
    Removing lr11xx_gnss_types_str.o(i.lr11xx_gnss_constellation_to_str), (80 bytes).
    Removing lr11xx_gnss_types_str.o(i.lr11xx_gnss_demod_status_to_str), (1228 bytes).
    Removing lr11xx_gnss_types_str.o(i.lr11xx_gnss_destination_to_str), (132 bytes).
    Removing lr11xx_gnss_types_str.o(i.lr11xx_gnss_doppler_solver_error_code_to_str), (516 bytes).
    Removing lr11xx_gnss_types_str.o(i.lr11xx_gnss_error_code_to_str), (244 bytes).
    Removing lr11xx_gnss_types_str.o(i.lr11xx_gnss_fetch_time_option_to_str), (128 bytes).
    Removing lr11xx_gnss_types_str.o(i.lr11xx_gnss_freq_search_space_to_str), (224 bytes).
    Removing lr11xx_gnss_types_str.o(i.lr11xx_gnss_message_dmc_opcode_to_str), (48 bytes).
    Removing lr11xx_gnss_types_str.o(i.lr11xx_gnss_message_host_status_to_str), (716 bytes).
    Removing lr11xx_gnss_types_str.o(i.lr11xx_gnss_read_time_status_to_str), (168 bytes).
    Removing lr11xx_gnss_types_str.o(i.lr11xx_gnss_scan_mode_launched_to_str), (432 bytes).
    Removing lr11xx_gnss_types_str.o(i.lr11xx_gnss_scan_mode_to_str), (132 bytes).
    Removing lr11xx_gnss_types_str.o(i.lr11xx_gnss_search_mode_to_str), (136 bytes).
    Removing lr11xx_gnss_types_str.o(i.lr11xx_gnss_sv_type_to_str), (76 bytes).
    Removing lr11xx_gnss_types_str.o(i.lr11xx_gnss_week_number_rollover_status_to_str), (124 bytes).
    Removing lr11xx_radio_types_str.o(i.lr11xx_radio_bpsk_pulse_shape_to_str), (56 bytes).
    Removing lr11xx_radio_types_str.o(i.lr11xx_radio_cad_exit_mode_to_str), (144 bytes).
    Removing lr11xx_radio_types_str.o(i.lr11xx_radio_gfsk_address_filtering_to_str), (140 bytes).
    Removing lr11xx_radio_types_str.o(i.lr11xx_radio_gfsk_bw_to_str), (724 bytes).
    Removing lr11xx_radio_types_str.o(i.lr11xx_radio_gfsk_crc_type_to_str), (216 bytes).
    Removing lr11xx_radio_types_str.o(i.lr11xx_radio_gfsk_dc_free_to_str), (156 bytes).
    Removing lr11xx_radio_types_str.o(i.lr11xx_radio_gfsk_pkt_len_modes_to_str), (148 bytes).
    Removing lr11xx_radio_types_str.o(i.lr11xx_radio_gfsk_preamble_detector_to_str), (284 bytes).
    Removing lr11xx_radio_types_str.o(i.lr11xx_radio_gfsk_pulse_shape_to_str), (240 bytes).
    Removing lr11xx_radio_types_str.o(i.lr11xx_radio_intermediary_mode_to_str), (160 bytes).
    Removing lr11xx_radio_types_str.o(i.lr11xx_radio_lora_network_type_to_str), (104 bytes).
    Removing lr11xx_radio_types_str.o(i.lr11xx_radio_lr_fhss_bitrate_to_str), (68 bytes).
    Removing lr11xx_radio_types_str.o(i.lr11xx_radio_lr_fhss_pulse_shape_to_str), (64 bytes).
    Removing lr11xx_radio_types_str.o(i.lr11xx_radio_pa_reg_supply_to_str), (96 bytes).
    Removing lr11xx_radio_types_str.o(i.lr11xx_radio_pa_selection_to_str), (112 bytes).
    Removing lr11xx_radio_types_str.o(i.lr11xx_radio_ramp_time_to_str), (528 bytes).
    Removing lr11xx_radio_types_str.o(i.lr11xx_radio_rx_duty_cycle_mode_to_str), (104 bytes).
    Removing lr11xx_radio_types_str.o(.conststring), (65 bytes).
    Removing lr11xx_system_types_str.o(i.lr11xx_system_chip_modes_to_str), (272 bytes).
    Removing lr11xx_system_types_str.o(i.lr11xx_system_command_status_to_str), (172 bytes).
    Removing lr11xx_system_types_str.o(i.lr11xx_system_infopage_id_to_str), (88 bytes).
    Removing lr11xx_system_types_str.o(i.lr11xx_system_lfclk_cfg_to_str), (116 bytes).
    Removing lr11xx_system_types_str.o(i.lr11xx_system_reg_mode_to_str), (88 bytes).
    Removing lr11xx_system_types_str.o(i.lr11xx_system_reset_status_to_str), (320 bytes).
    Removing lr11xx_system_types_str.o(i.lr11xx_system_standby_cfg_to_str), (96 bytes).
    Removing lr11xx_system_types_str.o(i.lr11xx_system_tcxo_supply_voltage_to_str), (320 bytes).
    Removing lr11xx_system_types_str.o(i.lr11xx_system_version_type_to_str), (148 bytes).
    Removing lr11xx_types_str.o(i.lr11xx_status_to_str), (72 bytes).
    Removing lr11xx_wifi_types_str.o(i.lr11xx_wifi_channel_to_str), (492 bytes).
    Removing lr11xx_wifi_types_str.o(i.lr11xx_wifi_datarate_to_str), (972 bytes).
    Removing lr11xx_wifi_types_str.o(i.lr11xx_wifi_frame_type_to_str), (136 bytes).
    Removing lr11xx_wifi_types_str.o(i.lr11xx_wifi_mac_origin_to_str), (140 bytes).
    Removing lr11xx_wifi_types_str.o(i.lr11xx_wifi_mode_to_str), (192 bytes).
    Removing lr11xx_wifi_types_str.o(i.lr11xx_wifi_result_format_to_str), (176 bytes).
    Removing lr11xx_wifi_types_str.o(i.lr11xx_wifi_signal_type_result_to_str), (124 bytes).
    Removing lr11xx_wifi_types_str.o(i.lr11xx_wifi_signal_type_scan_to_str), (148 bytes).
    Removing dfltui.o(.text), (26 bytes).
    Removing f2d.o(.text), (38 bytes).
    Removing d2f.o(.text), (56 bytes).
    Removing fepilogue.o(.text), (110 bytes).

487 unused section(s) (total 48337 bytes) removed from the image.

==============================================================================

Image Symbol Table

    Local Symbols

    Symbol Name                              Value     Ov Type        Size  Object(Section)

    ../clib/microlib/division.c              0x00000000   Number         0  uidiv.o ABSOLUTE
    ../clib/microlib/division.c              0x00000000   Number         0  uldiv.o ABSOLUTE
    ../clib/microlib/init/entry.s            0x00000000   Number         0  entry9a.o ABSOLUTE
    ../clib/microlib/init/entry.s            0x00000000   Number         0  entry11a.o ABSOLUTE
    ../clib/microlib/init/entry.s            0x00000000   Number         0  entry10b.o ABSOLUTE
    ../clib/microlib/init/entry.s            0x00000000   Number         0  entry2.o ABSOLUTE
    ../clib/microlib/init/entry.s            0x00000000   Number         0  entry8b.o ABSOLUTE
    ../clib/microlib/init/entry.s            0x00000000   Number         0  entry8a.o ABSOLUTE
    ../clib/microlib/init/entry.s            0x00000000   Number         0  entry7b.o ABSOLUTE
    ../clib/microlib/init/entry.s            0x00000000   Number         0  entry7a.o ABSOLUTE
    ../clib/microlib/init/entry.s            0x00000000   Number         0  entry5.o ABSOLUTE
    ../clib/microlib/init/entry.s            0x00000000   Number         0  entry10a.o ABSOLUTE
    ../clib/microlib/init/entry.s            0x00000000   Number         0  entry9b.o ABSOLUTE
    ../clib/microlib/init/entry.s            0x00000000   Number         0  entry11b.o ABSOLUTE
    ../clib/microlib/init/entry.s            0x00000000   Number         0  entry.o ABSOLUTE
    ../clib/microlib/longlong.c              0x00000000   Number         0  llushr.o ABSOLUTE
    ../clib/microlib/longlong.c              0x00000000   Number         0  llsshr.o ABSOLUTE
    ../clib/microlib/longlong.c              0x00000000   Number         0  llshl.o ABSOLUTE
    ../clib/microlib/malloc/malloc.c         0x00000000   Number         0  mallocra.o ABSOLUTE
    ../clib/microlib/malloc/malloc.c         0x00000000   Number         0  malloca.o ABSOLUTE
    ../clib/microlib/malloc/malloc.c         0x00000000   Number         0  mallocr.o ABSOLUTE
    ../clib/microlib/malloc/malloc.c         0x00000000   Number         0  malloc.o ABSOLUTE
    ../clib/microlib/malloc/mvars.c          0x00000000   Number         0  mvars.o ABSOLUTE
    ../clib/microlib/printf/printf.c         0x00000000   Number         0  printfa.o ABSOLUTE
    ../clib/microlib/stdio/fputc.c           0x00000000   Number         0  fputc.o ABSOLUTE
    ../clib/microlib/stdio/semi.s            0x00000000   Number         0  semi.o ABSOLUTE
    ../clib/microlib/stdio/streams.c         0x00000000   Number         0  stdout.o ABSOLUTE
    ../clib/microlib/string/memcmp.c         0x00000000   Number         0  memcmp.o ABSOLUTE
    ../clib/microlib/string/memcpy.c         0x00000000   Number         0  memcpya.o ABSOLUTE
    ../clib/microlib/string/memcpy.c         0x00000000   Number         0  memcpyb.o ABSOLUTE
    ../clib/microlib/string/memset.c         0x00000000   Number         0  memseta.o ABSOLUTE
    ../clib/microlib/string/strlen.c         0x00000000   Number         0  strlen.o ABSOLUTE
    ../clib/microlib/string/strncpy.c        0x00000000   Number         0  strncpy.o ABSOLUTE
    ../clib/microlib/string/strstr.c         0x00000000   Number         0  strstr.o ABSOLUTE
    ../clib/microlib/stubs.s                 0x00000000   Number         0  iusesemip.o ABSOLUTE
    ../clib/microlib/stubs.s                 0x00000000   Number         0  iusefp.o ABSOLUTE
    ../fplib/microlib/d2f.c                  0x00000000   Number         0  d2f.o ABSOLUTE
    ../fplib/microlib/f2d.c                  0x00000000   Number         0  f2d.o ABSOLUTE
    ../fplib/microlib/fpadd.c                0x00000000   Number         0  dadd.o ABSOLUTE
    ../fplib/microlib/fpdiv.c                0x00000000   Number         0  ddiv.o ABSOLUTE
    ../fplib/microlib/fpepilogue.c           0x00000000   Number         0  fepilogue.o ABSOLUTE
    ../fplib/microlib/fpepilogue.c           0x00000000   Number         0  depilogue.o ABSOLUTE
    ../fplib/microlib/fpfix.c                0x00000000   Number         0  dfixul.o ABSOLUTE
    ../fplib/microlib/fpflt.c                0x00000000   Number         0  dfltui.o ABSOLUTE
    ../fplib/microlib/fpmul.c                0x00000000   Number         0  dmul.o ABSOLUTE
    ..\..\..\..\common\src\common_version.c  0x00000000   Number         0  common_version.o ABSOLUTE
    ..\..\..\..\common\src\smtc_hal_dbg_trace.c 0x00000000   Number         0  smtc_hal_dbg_trace.o ABSOLUTE
    ..\..\..\..\common\src\smtc_shield_pinout_mapping.c 0x00000000   Number         0  smtc_shield_pinout_mapping.o ABSOLUTE
    ..\..\..\..\common\src\uart_init.c       0x00000000   Number         0  uart_init.o ABSOLUTE
    ..\..\..\..\libs\smtc-hal-mcu-stm32l4\src\smtc_hal_mcu_gpio_stm32l4.c 0x00000000   Number         0  smtc_hal_mcu_gpio_stm32l4.o ABSOLUTE
    ..\..\..\..\libs\smtc-hal-mcu-stm32l4\src\smtc_hal_mcu_rng_stm32l4.c 0x00000000   Number         0  smtc_hal_mcu_rng_stm32l4.o ABSOLUTE
    ..\..\..\..\libs\smtc-hal-mcu-stm32l4\src\smtc_hal_mcu_spi_stm32l4.c 0x00000000   Number         0  smtc_hal_mcu_spi_stm32l4.o ABSOLUTE
    ..\..\..\..\libs\smtc-hal-mcu-stm32l4\src\smtc_hal_mcu_stm32l4.c 0x00000000   Number         0  smtc_hal_mcu_stm32l4.o ABSOLUTE
    ..\..\..\..\libs\smtc-hal-mcu-stm32l4\src\smtc_hal_mcu_timer_stm32l4.c 0x00000000   Number         0  smtc_hal_mcu_timer_stm32l4.o ABSOLUTE
    ..\..\..\..\libs\smtc-hal-mcu-stm32l4\src\smtc_hal_mcu_uart_stm32l4.c 0x00000000   Number         0  smtc_hal_mcu_uart_stm32l4.o ABSOLUTE
    ..\..\..\..\libs\smtc-hal-mcu-stm32l4\third_party\STM32CubeL4\Drivers\CMSIS\Device\ST\STM32L4xx\Source\Templates\arm\startup_stm32l476xx.s 0x00000000   Number         0  startup_stm32l476xx.o ABSOLUTE
    ..\..\..\..\libs\smtc-hal-mcu-stm32l4\third_party\STM32CubeL4\Drivers\CMSIS\Device\ST\STM32L4xx\Source\Templates\system_stm32l4xx.c 0x00000000   Number         0  system_stm32l4xx.o ABSOLUTE
    ..\..\..\..\libs\smtc-hal-mcu-stm32l4\third_party\STM32CubeL4\Drivers\STM32L4xx_HAL_Driver\Src\stm32l4xx_ll_exti.c 0x00000000   Number         0  stm32l4xx_ll_exti.o ABSOLUTE
    ..\..\..\..\libs\smtc-hal-mcu-stm32l4\third_party\STM32CubeL4\Drivers\STM32L4xx_HAL_Driver\Src\stm32l4xx_ll_gpio.c 0x00000000   Number         0  stm32l4xx_ll_gpio.o ABSOLUTE
    ..\..\..\..\libs\smtc-hal-mcu-stm32l4\third_party\STM32CubeL4\Drivers\STM32L4xx_HAL_Driver\Src\stm32l4xx_ll_lptim.c 0x00000000   Number         0  stm32l4xx_ll_lptim.o ABSOLUTE
    ..\..\..\..\libs\smtc-hal-mcu-stm32l4\third_party\STM32CubeL4\Drivers\STM32L4xx_HAL_Driver\Src\stm32l4xx_ll_pwr.c 0x00000000   Number         0  stm32l4xx_ll_pwr.o ABSOLUTE
    ..\..\..\..\libs\smtc-hal-mcu-stm32l4\third_party\STM32CubeL4\Drivers\STM32L4xx_HAL_Driver\Src\stm32l4xx_ll_rcc.c 0x00000000   Number         0  stm32l4xx_ll_rcc.o ABSOLUTE
    ..\..\..\..\libs\smtc-hal-mcu-stm32l4\third_party\STM32CubeL4\Drivers\STM32L4xx_HAL_Driver\Src\stm32l4xx_ll_spi.c 0x00000000   Number         0  stm32l4xx_ll_spi.o ABSOLUTE
    ..\..\..\..\libs\smtc-hal-mcu-stm32l4\third_party\STM32CubeL4\Drivers\STM32L4xx_HAL_Driver\Src\stm32l4xx_ll_tim.c 0x00000000   Number         0  stm32l4xx_ll_tim.o ABSOLUTE
    ..\..\..\..\libs\smtc-hal-mcu-stm32l4\third_party\STM32CubeL4\Drivers\STM32L4xx_HAL_Driver\Src\stm32l4xx_ll_usart.c 0x00000000   Number         0  stm32l4xx_ll_usart.o ABSOLUTE
    ..\..\..\..\libs\smtc-hal-mcu-stm32l4\third_party\STM32CubeL4\Drivers\STM32L4xx_HAL_Driver\Src\stm32l4xx_ll_utils.c 0x00000000   Number         0  stm32l4xx_ll_utils.o ABSOLUTE
    ..\..\..\..\libs\smtc-shields\lr11xx\src\smtc_shield_lr1120mb1dis.c 0x00000000   Number         0  smtc_shield_lr1120mb1dis.o ABSOLUTE
    ..\..\..\..\libs\smtc-shields\lr11xx\src\smtc_shield_lr1120mb1dxs_common.c 0x00000000   Number         0  smtc_shield_lr1120mb1dxs_common.o ABSOLUTE
    ..\..\..\..\libs\smtc-shields\lr11xx\src\smtc_shield_lr11x0_common.c 0x00000000   Number         0  smtc_shield_lr11x0_common.o ABSOLUTE
    ..\..\..\..\libs\smtc-shields\lr11xx\src\smtc_shield_lr11xx_common.c 0x00000000   Number         0  smtc_shield_lr11xx_common.o ABSOLUTE
    ..\..\..\..\libs\smtc_dbpsk_driver\src\smtc_dbpsk.c 0x00000000   Number         0  smtc_dbpsk.o ABSOLUTE
    ..\..\..\..\lr11xx\common\lr11xx_hal.c   0x00000000   Number         0  lr11xx_hal.o ABSOLUTE
    ..\..\..\..\lr11xx\lr11xx_driver\src\lr11xx_bootloader.c 0x00000000   Number         0  lr11xx_bootloader.o ABSOLUTE
    ..\..\..\..\lr11xx\lr11xx_driver\src\lr11xx_crypto_engine.c 0x00000000   Number         0  lr11xx_crypto_engine.o ABSOLUTE
    ..\..\..\..\lr11xx\lr11xx_driver\src\lr11xx_driver_version.c 0x00000000   Number         0  lr11xx_driver_version.o ABSOLUTE
    ..\..\..\..\lr11xx\lr11xx_driver\src\lr11xx_gnss.c 0x00000000   Number         0  lr11xx_gnss.o ABSOLUTE
    ..\..\..\..\lr11xx\lr11xx_driver\src\lr11xx_lr_fhss.c 0x00000000   Number         0  lr11xx_lr_fhss.o ABSOLUTE
    ..\..\..\..\lr11xx\lr11xx_driver\src\lr11xx_radio.c 0x00000000   Number         0  lr11xx_radio.o ABSOLUTE
    ..\..\..\..\lr11xx\lr11xx_driver\src\lr11xx_radio_timings.c 0x00000000   Number         0  lr11xx_radio_timings.o ABSOLUTE
    ..\..\..\..\lr11xx\lr11xx_driver\src\lr11xx_regmem.c 0x00000000   Number         0  lr11xx_regmem.o ABSOLUTE
    ..\..\..\..\lr11xx\lr11xx_driver\src\lr11xx_rttof.c 0x00000000   Number         0  lr11xx_rttof.o ABSOLUTE
    ..\..\..\..\lr11xx\lr11xx_driver\src\lr11xx_system.c 0x00000000   Number         0  lr11xx_system.o ABSOLUTE
    ..\..\..\..\lr11xx\lr11xx_driver\src\lr11xx_wifi.c 0x00000000   Number         0  lr11xx_wifi.o ABSOLUTE
    ..\..\..\common\apps_common.c            0x00000000   Number         0  apps_common.o ABSOLUTE
    ..\..\..\common\apps_version.c           0x00000000   Number         0  apps_version.o ABSOLUTE
    ..\..\..\common\atc.c                    0x00000000   Number         0  atc.o ABSOLUTE
    ..\..\..\common\printers\lr11xx_bootloader_types_str.c 0x00000000   Number         0  lr11xx_bootloader_types_str.o ABSOLUTE
    ..\..\..\common\printers\lr11xx_crypto_engine_types_str.c 0x00000000   Number         0  lr11xx_crypto_engine_types_str.o ABSOLUTE
    ..\..\..\common\printers\lr11xx_gnss_types_str.c 0x00000000   Number         0  lr11xx_gnss_types_str.o ABSOLUTE
    ..\..\..\common\printers\lr11xx_radio_types_str.c 0x00000000   Number         0  lr11xx_radio_types_str.o ABSOLUTE
    ..\..\..\common\printers\lr11xx_system_types_str.c 0x00000000   Number         0  lr11xx_system_types_str.o ABSOLUTE
    ..\..\..\common\printers\lr11xx_types_str.c 0x00000000   Number         0  lr11xx_types_str.o ABSOLUTE
    ..\..\..\common\printers\lr11xx_wifi_types_str.c 0x00000000   Number         0  lr11xx_wifi_types_str.o ABSOLUTE
    ..\\..\\..\\..\\common\\src\\smtc_shield_pinout_mapping.c 0x00000000   Number         0  smtc_shield_pinout_mapping.o ABSOLUTE
    ..\\..\\..\\..\\common\\src\\uart_init.c 0x00000000   Number         0  uart_init.o ABSOLUTE
    ..\\..\\..\\..\\libs\\smtc-hal-mcu-stm32l4\\src\\smtc_hal_mcu_gpio_stm32l4.c 0x00000000   Number         0  smtc_hal_mcu_gpio_stm32l4.o ABSOLUTE
    ..\\..\\..\\..\\libs\\smtc-hal-mcu-stm32l4\\src\\smtc_hal_mcu_rng_stm32l4.c 0x00000000   Number         0  smtc_hal_mcu_rng_stm32l4.o ABSOLUTE
    ..\\..\\..\\..\\libs\\smtc-hal-mcu-stm32l4\\src\\smtc_hal_mcu_spi_stm32l4.c 0x00000000   Number         0  smtc_hal_mcu_spi_stm32l4.o ABSOLUTE
    ..\\..\\..\\..\\libs\\smtc-hal-mcu-stm32l4\\src\\smtc_hal_mcu_stm32l4.c 0x00000000   Number         0  smtc_hal_mcu_stm32l4.o ABSOLUTE
    ..\\..\\..\\..\\libs\\smtc-hal-mcu-stm32l4\\src\\smtc_hal_mcu_timer_stm32l4.c 0x00000000   Number         0  smtc_hal_mcu_timer_stm32l4.o ABSOLUTE
    ..\\..\\..\\..\\libs\\smtc-hal-mcu-stm32l4\\src\\smtc_hal_mcu_uart_stm32l4.c 0x00000000   Number         0  smtc_hal_mcu_uart_stm32l4.o ABSOLUTE
    ..\\..\\..\\..\\libs\\smtc-hal-mcu-stm32l4\\third_party\\STM32CubeL4\\Drivers\\CMSIS\\Device\\ST\\STM32L4xx\\Source\\Templates\\system_stm32l4xx.c 0x00000000   Number         0  system_stm32l4xx.o ABSOLUTE
    ..\\..\\..\\..\\libs\\smtc-hal-mcu-stm32l4\\third_party\\STM32CubeL4\\Drivers\\STM32L4xx_HAL_Driver\\Src\\stm32l4xx_ll_exti.c 0x00000000   Number         0  stm32l4xx_ll_exti.o ABSOLUTE
    ..\\..\\..\\..\\libs\\smtc-hal-mcu-stm32l4\\third_party\\STM32CubeL4\\Drivers\\STM32L4xx_HAL_Driver\\Src\\stm32l4xx_ll_gpio.c 0x00000000   Number         0  stm32l4xx_ll_gpio.o ABSOLUTE
    ..\\..\\..\\..\\libs\\smtc-hal-mcu-stm32l4\\third_party\\STM32CubeL4\\Drivers\\STM32L4xx_HAL_Driver\\Src\\stm32l4xx_ll_lptim.c 0x00000000   Number         0  stm32l4xx_ll_lptim.o ABSOLUTE
    ..\\..\\..\\..\\libs\\smtc-hal-mcu-stm32l4\\third_party\\STM32CubeL4\\Drivers\\STM32L4xx_HAL_Driver\\Src\\stm32l4xx_ll_pwr.c 0x00000000   Number         0  stm32l4xx_ll_pwr.o ABSOLUTE
    ..\\..\\..\\..\\libs\\smtc-hal-mcu-stm32l4\\third_party\\STM32CubeL4\\Drivers\\STM32L4xx_HAL_Driver\\Src\\stm32l4xx_ll_rcc.c 0x00000000   Number         0  stm32l4xx_ll_rcc.o ABSOLUTE
    ..\\..\\..\\..\\libs\\smtc-hal-mcu-stm32l4\\third_party\\STM32CubeL4\\Drivers\\STM32L4xx_HAL_Driver\\Src\\stm32l4xx_ll_spi.c 0x00000000   Number         0  stm32l4xx_ll_spi.o ABSOLUTE
    ..\\..\\..\\..\\libs\\smtc-hal-mcu-stm32l4\\third_party\\STM32CubeL4\\Drivers\\STM32L4xx_HAL_Driver\\Src\\stm32l4xx_ll_tim.c 0x00000000   Number         0  stm32l4xx_ll_tim.o ABSOLUTE
    ..\\..\\..\\..\\libs\\smtc-hal-mcu-stm32l4\\third_party\\STM32CubeL4\\Drivers\\STM32L4xx_HAL_Driver\\Src\\stm32l4xx_ll_usart.c 0x00000000   Number         0  stm32l4xx_ll_usart.o ABSOLUTE
    ..\\..\\..\\..\\libs\\smtc-hal-mcu-stm32l4\\third_party\\STM32CubeL4\\Drivers\\STM32L4xx_HAL_Driver\\Src\\stm32l4xx_ll_utils.c 0x00000000   Number         0  stm32l4xx_ll_utils.o ABSOLUTE
    ..\\..\\..\\..\\lr11xx\\common\\lr11xx_hal.c 0x00000000   Number         0  lr11xx_hal.o ABSOLUTE
    ..\\..\\..\\common\\apps_common.c        0x00000000   Number         0  apps_common.o ABSOLUTE
    ..\\..\\..\\common\\apps_version.c       0x00000000   Number         0  apps_version.o ABSOLUTE
    ..\\main_per.c                           0x00000000   Number         0  main_per.o ABSOLUTE
    ..\main_per.c                            0x00000000   Number         0  main_per.o ABSOLUTE
    cdrcmple.s                               0x00000000   Number         0  cdrcmple.o ABSOLUTE
    dc.s                                     0x00000000   Number         0  dc.o ABSOLUTE
    handlers.s                               0x00000000   Number         0  handlers.o ABSOLUTE
    init.s                                   0x00000000   Number         0  init.o ABSOLUTE
    RESET                                    0x08000000   Section      392  startup_stm32l476xx.o(RESET)
    .ARM.Collect$$$$00000000                 0x08000188   Section        0  entry.o(.ARM.Collect$$$$00000000)
    .ARM.Collect$$$$00000001                 0x08000188   Section        4  entry2.o(.ARM.Collect$$$$00000001)
    .ARM.Collect$$$$00000004                 0x0800018c   Section        4  entry5.o(.ARM.Collect$$$$00000004)
    .ARM.Collect$$$$00000008                 0x08000190   Section        0  entry7b.o(.ARM.Collect$$$$00000008)
    .ARM.Collect$$$$0000000A                 0x08000190   Section        0  entry8b.o(.ARM.Collect$$$$0000000A)
    .ARM.Collect$$$$0000000B                 0x08000190   Section        8  entry9a.o(.ARM.Collect$$$$0000000B)
    .ARM.Collect$$$$0000000D                 0x08000198   Section        0  entry10a.o(.ARM.Collect$$$$0000000D)
    .ARM.Collect$$$$0000000F                 0x08000198   Section        0  entry11a.o(.ARM.Collect$$$$0000000F)
    .ARM.Collect$$$$00002712                 0x08000198   Section        4  entry2.o(.ARM.Collect$$$$00002712)
    __lit__00000000                          0x08000198   Data           4  entry2.o(.ARM.Collect$$$$00002712)
    .text                                    0x0800019c   Section       36  startup_stm32l476xx.o(.text)
    $v0                                      0x0800019c   Number         0  startup_stm32l476xx.o(.text)
    .text                                    0x080001c0   Section        0  memcpya.o(.text)
    .text                                    0x080001e4   Section        0  memseta.o(.text)
    .text                                    0x08000208   Section        0  strstr.o(.text)
    .text                                    0x0800022c   Section        0  strncpy.o(.text)
    .text                                    0x08000244   Section        0  strlen.o(.text)
    .text                                    0x08000252   Section        0  memcmp.o(.text)
    .text                                    0x0800026c   Section        0  dadd.o(.text)
    .text                                    0x080003ca   Section        0  dmul.o(.text)
    .text                                    0x080004b4   Section        0  ddiv.o(.text)
    .text                                    0x08000592   Section        0  uidiv.o(.text)
    .text                                    0x080005be   Section        0  uldiv.o(.text)
    .text                                    0x08000626   Section        0  llshl.o(.text)
    .text                                    0x08000644   Section        0  llsshr.o(.text)
    .text                                    0x08000668   Section        0  iusefp.o(.text)
    .text                                    0x08000668   Section        0  depilogue.o(.text)
    .text                                    0x08000722   Section        0  dfixul.o(.text)
    .text                                    0x08000754   Section       48  cdrcmple.o(.text)
    .text                                    0x08000784   Section       36  init.o(.text)
    .text                                    0x080007a8   Section        0  llushr.o(.text)
    i.ATC_IdleLine                           0x080007c8   Section        0  uart_init.o(i.ATC_IdleLine)
    i.ATC_Init                               0x08000948   Section        0  atc.o(i.ATC_Init)
    i.ATC_Loop                               0x08000aa0   Section        0  atc.o(i.ATC_Loop)
    i.ATC_SetEvents                          0x08000bc0   Section        0  atc.o(i.ATC_SetEvents)
    i.EXTI0_IRQHandler                       0x08000c48   Section        0  smtc_hal_mcu_gpio_stm32l4.o(i.EXTI0_IRQHandler)
    i.EXTI15_10_IRQHandler                   0x08000c60   Section        0  smtc_hal_mcu_gpio_stm32l4.o(i.EXTI15_10_IRQHandler)
    i.EXTI1_IRQHandler                       0x08000d00   Section        0  smtc_hal_mcu_gpio_stm32l4.o(i.EXTI1_IRQHandler)
    i.EXTI2_IRQHandler                       0x08000d18   Section        0  smtc_hal_mcu_gpio_stm32l4.o(i.EXTI2_IRQHandler)
    i.EXTI3_IRQHandler                       0x08000d30   Section        0  smtc_hal_mcu_gpio_stm32l4.o(i.EXTI3_IRQHandler)
    i.EXTI4_IRQHandler                       0x08000d48   Section        0  smtc_hal_mcu_gpio_stm32l4.o(i.EXTI4_IRQHandler)
    i.EXTI9_5_IRQHandler                     0x08000d60   Section        0  smtc_hal_mcu_gpio_stm32l4.o(i.EXTI9_5_IRQHandler)
    i.LL_AHB2_GRP1_EnableClock               0x08000dd4   Section        0  smtc_hal_mcu_gpio_stm32l4.o(i.LL_AHB2_GRP1_EnableClock)
    LL_AHB2_GRP1_EnableClock                 0x08000dd5   Thumb Code    24  smtc_hal_mcu_gpio_stm32l4.o(i.LL_AHB2_GRP1_EnableClock)
    i.LL_AHB2_GRP1_EnableClock               0x08000df0   Section        0  smtc_hal_mcu_uart_stm32l4.o(i.LL_AHB2_GRP1_EnableClock)
    LL_AHB2_GRP1_EnableClock                 0x08000df1   Thumb Code    24  smtc_hal_mcu_uart_stm32l4.o(i.LL_AHB2_GRP1_EnableClock)
    i.LL_AHB2_GRP1_EnableClock               0x08000e0c   Section        0  smtc_hal_mcu_spi_stm32l4.o(i.LL_AHB2_GRP1_EnableClock)
    LL_AHB2_GRP1_EnableClock                 0x08000e0d   Thumb Code    24  smtc_hal_mcu_spi_stm32l4.o(i.LL_AHB2_GRP1_EnableClock)
    i.LL_EXTI_ClearFlag_0_31                 0x08000e28   Section        0  smtc_hal_mcu_gpio_stm32l4.o(i.LL_EXTI_ClearFlag_0_31)
    LL_EXTI_ClearFlag_0_31                   0x08000e29   Thumb Code     6  smtc_hal_mcu_gpio_stm32l4.o(i.LL_EXTI_ClearFlag_0_31)
    i.LL_EXTI_DisableEvent_0_31              0x08000e34   Section        0  stm32l4xx_ll_exti.o(i.LL_EXTI_DisableEvent_0_31)
    LL_EXTI_DisableEvent_0_31                0x08000e35   Thumb Code    12  stm32l4xx_ll_exti.o(i.LL_EXTI_DisableEvent_0_31)
    i.LL_EXTI_DisableEvent_32_63             0x08000e44   Section        0  stm32l4xx_ll_exti.o(i.LL_EXTI_DisableEvent_32_63)
    LL_EXTI_DisableEvent_32_63               0x08000e45   Thumb Code    12  stm32l4xx_ll_exti.o(i.LL_EXTI_DisableEvent_32_63)
    i.LL_EXTI_DisableIT_0_31                 0x08000e54   Section        0  stm32l4xx_ll_exti.o(i.LL_EXTI_DisableIT_0_31)
    LL_EXTI_DisableIT_0_31                   0x08000e55   Thumb Code    12  stm32l4xx_ll_exti.o(i.LL_EXTI_DisableIT_0_31)
    i.LL_EXTI_DisableIT_32_63                0x08000e64   Section        0  stm32l4xx_ll_exti.o(i.LL_EXTI_DisableIT_32_63)
    LL_EXTI_DisableIT_32_63                  0x08000e65   Thumb Code    12  stm32l4xx_ll_exti.o(i.LL_EXTI_DisableIT_32_63)
    i.LL_EXTI_EnableEvent_0_31               0x08000e74   Section        0  stm32l4xx_ll_exti.o(i.LL_EXTI_EnableEvent_0_31)
    LL_EXTI_EnableEvent_0_31                 0x08000e75   Thumb Code    12  stm32l4xx_ll_exti.o(i.LL_EXTI_EnableEvent_0_31)
    i.LL_EXTI_EnableEvent_32_63              0x08000e84   Section        0  stm32l4xx_ll_exti.o(i.LL_EXTI_EnableEvent_32_63)
    LL_EXTI_EnableEvent_32_63                0x08000e85   Thumb Code    12  stm32l4xx_ll_exti.o(i.LL_EXTI_EnableEvent_32_63)
    i.LL_EXTI_EnableFallingTrig_0_31         0x08000e94   Section        0  stm32l4xx_ll_exti.o(i.LL_EXTI_EnableFallingTrig_0_31)
    LL_EXTI_EnableFallingTrig_0_31           0x08000e95   Thumb Code    12  stm32l4xx_ll_exti.o(i.LL_EXTI_EnableFallingTrig_0_31)
    i.LL_EXTI_EnableFallingTrig_32_63        0x08000ea4   Section        0  stm32l4xx_ll_exti.o(i.LL_EXTI_EnableFallingTrig_32_63)
    LL_EXTI_EnableFallingTrig_32_63          0x08000ea5   Thumb Code    12  stm32l4xx_ll_exti.o(i.LL_EXTI_EnableFallingTrig_32_63)
    i.LL_EXTI_EnableIT_0_31                  0x08000eb4   Section        0  stm32l4xx_ll_exti.o(i.LL_EXTI_EnableIT_0_31)
    LL_EXTI_EnableIT_0_31                    0x08000eb5   Thumb Code    12  stm32l4xx_ll_exti.o(i.LL_EXTI_EnableIT_0_31)
    i.LL_EXTI_EnableIT_32_63                 0x08000ec4   Section        0  stm32l4xx_ll_exti.o(i.LL_EXTI_EnableIT_32_63)
    LL_EXTI_EnableIT_32_63                   0x08000ec5   Thumb Code    12  stm32l4xx_ll_exti.o(i.LL_EXTI_EnableIT_32_63)
    i.LL_EXTI_EnableRisingTrig_0_31          0x08000ed4   Section        0  stm32l4xx_ll_exti.o(i.LL_EXTI_EnableRisingTrig_0_31)
    LL_EXTI_EnableRisingTrig_0_31            0x08000ed5   Thumb Code    12  stm32l4xx_ll_exti.o(i.LL_EXTI_EnableRisingTrig_0_31)
    i.LL_EXTI_EnableRisingTrig_32_63         0x08000ee4   Section        0  stm32l4xx_ll_exti.o(i.LL_EXTI_EnableRisingTrig_32_63)
    LL_EXTI_EnableRisingTrig_32_63           0x08000ee5   Thumb Code    12  stm32l4xx_ll_exti.o(i.LL_EXTI_EnableRisingTrig_32_63)
    i.LL_EXTI_Init                           0x08000ef4   Section        0  stm32l4xx_ll_exti.o(i.LL_EXTI_Init)
    i.LL_EXTI_IsActiveFlag_0_31              0x08001064   Section        0  smtc_hal_mcu_gpio_stm32l4.o(i.LL_EXTI_IsActiveFlag_0_31)
    LL_EXTI_IsActiveFlag_0_31                0x08001065   Thumb Code    20  smtc_hal_mcu_gpio_stm32l4.o(i.LL_EXTI_IsActiveFlag_0_31)
    i.LL_GPIO_Init                           0x0800107c   Section        0  stm32l4xx_ll_gpio.o(i.LL_GPIO_Init)
    i.LL_Init1msTick                         0x080011aa   Section        0  stm32l4xx_ll_utils.o(i.LL_Init1msTick)
    i.LL_RCC_GetUARTClockFreq                0x080011c8   Section        0  stm32l4xx_ll_rcc.o(i.LL_RCC_GetUARTClockFreq)
    i.LL_RCC_GetUARTClockSource              0x08001294   Section        0  stm32l4xx_ll_rcc.o(i.LL_RCC_GetUARTClockSource)
    LL_RCC_GetUARTClockSource                0x08001295   Thumb Code    14  stm32l4xx_ll_rcc.o(i.LL_RCC_GetUARTClockSource)
    i.LL_RCC_GetUSARTClockFreq               0x080012a8   Section        0  stm32l4xx_ll_rcc.o(i.LL_RCC_GetUSARTClockFreq)
    i.LL_RCC_GetUSARTClockSource             0x080013c4   Section        0  stm32l4xx_ll_rcc.o(i.LL_RCC_GetUSARTClockSource)
    LL_RCC_GetUSARTClockSource               0x080013c5   Thumb Code    14  stm32l4xx_ll_rcc.o(i.LL_RCC_GetUSARTClockSource)
    i.LL_RCC_HSI_IsReady                     0x080013d8   Section        0  stm32l4xx_ll_rcc.o(i.LL_RCC_HSI_IsReady)
    LL_RCC_HSI_IsReady                       0x080013d9   Thumb Code    10  stm32l4xx_ll_rcc.o(i.LL_RCC_HSI_IsReady)
    i.LL_RCC_LSE_IsReady                     0x080013e8   Section        0  stm32l4xx_ll_rcc.o(i.LL_RCC_LSE_IsReady)
    LL_RCC_LSE_IsReady                       0x080013e9   Thumb Code    10  stm32l4xx_ll_rcc.o(i.LL_RCC_LSE_IsReady)
    i.LL_RCC_MSI_GetRange                    0x080013f8   Section        0  stm32l4xx_ll_rcc.o(i.LL_RCC_MSI_GetRange)
    LL_RCC_MSI_GetRange                      0x080013f9   Thumb Code    10  stm32l4xx_ll_rcc.o(i.LL_RCC_MSI_GetRange)
    i.LL_RCC_MSI_GetRangeAfterStandby        0x08001408   Section        0  stm32l4xx_ll_rcc.o(i.LL_RCC_MSI_GetRangeAfterStandby)
    LL_RCC_MSI_GetRangeAfterStandby          0x08001409   Thumb Code    10  stm32l4xx_ll_rcc.o(i.LL_RCC_MSI_GetRangeAfterStandby)
    i.LL_RCC_MSI_IsEnabledRangeSelect        0x08001418   Section        0  stm32l4xx_ll_rcc.o(i.LL_RCC_MSI_IsEnabledRangeSelect)
    LL_RCC_MSI_IsEnabledRangeSelect          0x08001419   Thumb Code    10  stm32l4xx_ll_rcc.o(i.LL_RCC_MSI_IsEnabledRangeSelect)
    i.LL_RCC_PLL_GetDivider                  0x08001428   Section        0  stm32l4xx_ll_rcc.o(i.LL_RCC_PLL_GetDivider)
    LL_RCC_PLL_GetDivider                    0x08001429   Thumb Code    10  stm32l4xx_ll_rcc.o(i.LL_RCC_PLL_GetDivider)
    i.LL_RCC_PLL_GetMainSource               0x08001438   Section        0  stm32l4xx_ll_rcc.o(i.LL_RCC_PLL_GetMainSource)
    LL_RCC_PLL_GetMainSource                 0x08001439   Thumb Code    10  stm32l4xx_ll_rcc.o(i.LL_RCC_PLL_GetMainSource)
    i.LL_RCC_PLL_GetN                        0x08001448   Section        0  stm32l4xx_ll_rcc.o(i.LL_RCC_PLL_GetN)
    LL_RCC_PLL_GetN                          0x08001449   Thumb Code    10  stm32l4xx_ll_rcc.o(i.LL_RCC_PLL_GetN)
    i.LL_SPI_Init                            0x08001458   Section        0  stm32l4xx_ll_spi.o(i.LL_SPI_Init)
    i.LL_SetSystemCoreClock                  0x080014d8   Section        0  stm32l4xx_ll_utils.o(i.LL_SetSystemCoreClock)
    i.LL_USART_Init                          0x080014e4   Section        0  stm32l4xx_ll_usart.o(i.LL_USART_Init)
    i.LL_USART_IsActiveFlag_RXNE             0x080015ec   Section        0  smtc_hal_mcu_uart_stm32l4.o(i.LL_USART_IsActiveFlag_RXNE)
    LL_USART_IsActiveFlag_RXNE               0x080015ed   Thumb Code    10  smtc_hal_mcu_uart_stm32l4.o(i.LL_USART_IsActiveFlag_RXNE)
    i.LL_USART_IsEnabled                     0x080015f6   Section        0  stm32l4xx_ll_usart.o(i.LL_USART_IsEnabled)
    LL_USART_IsEnabled                       0x080015f7   Thumb Code    10  stm32l4xx_ll_usart.o(i.LL_USART_IsEnabled)
    i.LL_USART_IsEnabled                     0x08001600   Section        0  smtc_hal_mcu_uart_stm32l4.o(i.LL_USART_IsEnabled)
    LL_USART_IsEnabled                       0x08001601   Thumb Code    10  smtc_hal_mcu_uart_stm32l4.o(i.LL_USART_IsEnabled)
    i.LL_mDelay                              0x0800160a   Section        0  stm32l4xx_ll_utils.o(i.LL_mDelay)
    i.LPTIM1_IRQHandler                      0x08001638   Section        0  smtc_hal_mcu_timer_stm32l4.o(i.LPTIM1_IRQHandler)
    i.RCC_GetHCLKClockFreq                   0x08001690   Section        0  stm32l4xx_ll_rcc.o(i.RCC_GetHCLKClockFreq)
    RCC_GetHCLKClockFreq                     0x08001691   Thumb Code    24  stm32l4xx_ll_rcc.o(i.RCC_GetHCLKClockFreq)
    i.RCC_GetPCLK1ClockFreq                  0x080016b0   Section        0  stm32l4xx_ll_rcc.o(i.RCC_GetPCLK1ClockFreq)
    RCC_GetPCLK1ClockFreq                    0x080016b1   Thumb Code    26  stm32l4xx_ll_rcc.o(i.RCC_GetPCLK1ClockFreq)
    i.RCC_GetPCLK2ClockFreq                  0x080016d4   Section        0  stm32l4xx_ll_rcc.o(i.RCC_GetPCLK2ClockFreq)
    RCC_GetPCLK2ClockFreq                    0x080016d5   Thumb Code    26  stm32l4xx_ll_rcc.o(i.RCC_GetPCLK2ClockFreq)
    i.RCC_GetSystemClockFreq                 0x080016f8   Section        0  stm32l4xx_ll_rcc.o(i.RCC_GetSystemClockFreq)
    RCC_GetSystemClockFreq                   0x080016f9   Thumb Code   170  stm32l4xx_ll_rcc.o(i.RCC_GetSystemClockFreq)
    i.RCC_PLL_GetFreqDomain_SYS              0x080017b4   Section        0  stm32l4xx_ll_rcc.o(i.RCC_PLL_GetFreqDomain_SYS)
    RCC_PLL_GetFreqDomain_SYS                0x080017b5   Thumb Code   194  stm32l4xx_ll_rcc.o(i.RCC_PLL_GetFreqDomain_SYS)
    i.SystemInit                             0x08001888   Section        0  system_stm32l4xx.o(i.SystemInit)
    i.USART2_IRQHandler                      0x0800189c   Section        0  smtc_hal_mcu_uart_stm32l4.o(i.USART2_IRQHandler)
    i.__0vsprintf                            0x08001908   Section        0  printfa.o(i.__0vsprintf)
    i.__scatterload_copy                     0x0800192c   Section       14  handlers.o(i.__scatterload_copy)
    i.__scatterload_null                     0x0800193a   Section        2  handlers.o(i.__scatterload_null)
    i.__scatterload_zeroinit                 0x0800193c   Section       14  handlers.o(i.__scatterload_zeroinit)
    i._fp_digits                             0x0800194c   Section        0  printfa.o(i._fp_digits)
    _fp_digits                               0x0800194d   Thumb Code   366  printfa.o(i._fp_digits)
    i._printf_core                           0x08001ad8   Section        0  printfa.o(i._printf_core)
    _printf_core                             0x08001ad9   Thumb Code  1744  printfa.o(i._printf_core)
    i._printf_post_padding                   0x080021ba   Section        0  printfa.o(i._printf_post_padding)
    _printf_post_padding                     0x080021bb   Thumb Code    36  printfa.o(i._printf_post_padding)
    i._printf_pre_padding                    0x080021de   Section        0  printfa.o(i._printf_pre_padding)
    _printf_pre_padding                      0x080021df   Thumb Code    46  printfa.o(i._printf_pre_padding)
    i._sputc                                 0x0800220c   Section        0  printfa.o(i._sputc)
    _sputc                                   0x0800220d   Thumb Code    10  printfa.o(i._sputc)
    i.apps_common_compute_lora_ldro          0x08002216   Section        0  apps_common.o(i.apps_common_compute_lora_ldro)
    apps_common_compute_lora_ldro            0x08002217   Thumb Code   122  apps_common.o(i.apps_common_compute_lora_ldro)
    i.apps_common_lr11xx_fetch_and_print_version 0x08002290   Section        0  apps_common.o(i.apps_common_lr11xx_fetch_and_print_version)
    i.apps_common_lr11xx_fetch_version       0x080022a4   Section        0  apps_common.o(i.apps_common_lr11xx_fetch_version)
    i.apps_common_lr11xx_get_context         0x08002354   Section        0  apps_common.o(i.apps_common_lr11xx_get_context)
    i.apps_common_lr11xx_handle_post_rx      0x08002414   Section        0  apps_common.o(i.apps_common_lr11xx_handle_post_rx)
    i.apps_common_lr11xx_handle_post_tx      0x08002434   Section        0  apps_common.o(i.apps_common_lr11xx_handle_post_tx)
    i.apps_common_lr11xx_handle_pre_rx       0x08002454   Section        0  apps_common.o(i.apps_common_lr11xx_handle_pre_rx)
    i.apps_common_lr11xx_handle_pre_tx       0x08002474   Section        0  apps_common.o(i.apps_common_lr11xx_handle_pre_tx)
    i.apps_common_lr11xx_irq_process         0x08002494   Section        0  apps_common.o(i.apps_common_lr11xx_irq_process)
    i.apps_common_lr11xx_print_version       0x08002a2c   Section        0  apps_common.o(i.apps_common_lr11xx_print_version)
    i.apps_common_lr11xx_radio_init          0x08002c34   Section        0  apps_common.o(i.apps_common_lr11xx_radio_init)
    i.apps_common_lr11xx_receive             0x08002f70   Section        0  apps_common.o(i.apps_common_lr11xx_receive)
    i.apps_common_lr11xx_system_init         0x08003148   Section        0  apps_common.o(i.apps_common_lr11xx_system_init)
    i.apps_common_shield_init                0x0800346c   Section        0  apps_common.o(i.apps_common_shield_init)
    i.atc_per_event_callback                 0x08003554   Section        0  uart_init.o(i.atc_per_event_callback)
    i.free                                   0x080035e4   Section        0  malloc.o(i.free)
    i.get_time_on_air_in_ms                  0x08003634   Section        0  apps_common.o(i.get_time_on_air_in_ms)
    i.hal_mcu_trace_print                    0x08003668   Section        0  smtc_hal_dbg_trace.o(i.hal_mcu_trace_print)
    i.lr11xx_hal_direct_read                 0x08003682   Section        0  lr11xx_hal.o(i.lr11xx_hal_direct_read)
    i.lr11xx_hal_read                        0x080036b6   Section        0  lr11xx_hal.o(i.lr11xx_hal_read)
    i.lr11xx_hal_reset                       0x0800372a   Section        0  lr11xx_hal.o(i.lr11xx_hal_reset)
    i.lr11xx_hal_wait_on_busy                0x0800374a   Section        0  lr11xx_hal.o(i.lr11xx_hal_wait_on_busy)
    i.lr11xx_hal_write                       0x08003764   Section        0  lr11xx_hal.o(i.lr11xx_hal_write)
    i.lr11xx_radio_apply_high_acp_workaround 0x080037ac   Section        0  lr11xx_radio.o(i.lr11xx_radio_apply_high_acp_workaround)
    i.lr11xx_radio_cfg_rx_boosted            0x080037c4   Section        0  lr11xx_radio.o(i.lr11xx_radio_cfg_rx_boosted)
    i.lr11xx_radio_convert_time_in_ms_to_rtc_step 0x080037ec   Section        0  lr11xx_radio.o(i.lr11xx_radio_convert_time_in_ms_to_rtc_step)
    i.lr11xx_radio_fallback_modes_to_str     0x080037fc   Section        0  lr11xx_radio_types_str.o(i.lr11xx_radio_fallback_modes_to_str)
    i.lr11xx_radio_get_gfsk_time_on_air_in_ms 0x08003884   Section        0  lr11xx_radio.o(i.lr11xx_radio_get_gfsk_time_on_air_in_ms)
    i.lr11xx_radio_get_gfsk_time_on_air_numerator 0x080038a4   Section        0  lr11xx_radio.o(i.lr11xx_radio_get_gfsk_time_on_air_numerator)
    i.lr11xx_radio_get_lora_bw_in_hz         0x08003910   Section        0  lr11xx_radio.o(i.lr11xx_radio_get_lora_bw_in_hz)
    i.lr11xx_radio_get_lora_pkt_status       0x08003984   Section        0  lr11xx_radio.o(i.lr11xx_radio_get_lora_pkt_status)
    i.lr11xx_radio_get_lora_time_on_air_in_ms 0x080039d4   Section        0  lr11xx_radio.o(i.lr11xx_radio_get_lora_time_on_air_in_ms)
    i.lr11xx_radio_get_lora_time_on_air_numerator 0x080039fc   Section        0  lr11xx_radio.o(i.lr11xx_radio_get_lora_time_on_air_numerator)
    i.lr11xx_radio_get_rx_buffer_status      0x08003bb8   Section        0  lr11xx_radio.o(i.lr11xx_radio_get_rx_buffer_status)
    i.lr11xx_radio_lora_bw_to_str            0x08003bf0   Section        0  lr11xx_radio_types_str.o(i.lr11xx_radio_lora_bw_to_str)
    i.lr11xx_radio_lora_cr_to_str            0x08003d80   Section        0  lr11xx_radio_types_str.o(i.lr11xx_radio_lora_cr_to_str)
    i.lr11xx_radio_lora_crc_to_str           0x08003e9c   Section        0  lr11xx_radio_types_str.o(i.lr11xx_radio_lora_crc_to_str)
    i.lr11xx_radio_lora_iq_to_str            0x08003ef4   Section        0  lr11xx_radio_types_str.o(i.lr11xx_radio_lora_iq_to_str)
    i.lr11xx_radio_lora_pkt_len_modes_to_str 0x08003f54   Section        0  lr11xx_radio_types_str.o(i.lr11xx_radio_lora_pkt_len_modes_to_str)
    i.lr11xx_radio_lora_sf_to_str            0x08003fb4   Section        0  lr11xx_radio_types_str.o(i.lr11xx_radio_lora_sf_to_str)
    i.lr11xx_radio_pkt_type_to_str           0x080040b4   Section        0  lr11xx_radio_types_str.o(i.lr11xx_radio_pkt_type_to_str)
    i.lr11xx_radio_set_lna_mode              0x08004190   Section        0  lr11xx_radio.o(i.lr11xx_radio_set_lna_mode)
    i.lr11xx_radio_set_lora_mod_params       0x080041a8   Section        0  lr11xx_radio.o(i.lr11xx_radio_set_lora_mod_params)
    i.lr11xx_radio_set_lora_pkt_params       0x080041e8   Section        0  lr11xx_radio.o(i.lr11xx_radio_set_lora_pkt_params)
    i.lr11xx_radio_set_lora_sync_word        0x08004238   Section        0  lr11xx_radio.o(i.lr11xx_radio_set_lora_sync_word)
    i.lr11xx_radio_set_pa_cfg                0x08004260   Section        0  lr11xx_radio.o(i.lr11xx_radio_set_pa_cfg)
    i.lr11xx_radio_set_pkt_type              0x080042a0   Section        0  lr11xx_radio.o(i.lr11xx_radio_set_pkt_type)
    i.lr11xx_radio_set_rf_freq               0x080042c8   Section        0  lr11xx_radio.o(i.lr11xx_radio_set_rf_freq)
    i.lr11xx_radio_set_rssi_calibration      0x08004308   Section        0  lr11xx_radio.o(i.lr11xx_radio_set_rssi_calibration)
    i.lr11xx_radio_set_rx                    0x080043d8   Section        0  lr11xx_radio.o(i.lr11xx_radio_set_rx)
    i.lr11xx_radio_set_rx_tx_fallback_mode   0x080043f0   Section        0  lr11xx_radio.o(i.lr11xx_radio_set_rx_tx_fallback_mode)
    i.lr11xx_radio_set_rx_with_timeout_in_rtc_step 0x08004418   Section        0  lr11xx_radio.o(i.lr11xx_radio_set_rx_with_timeout_in_rtc_step)
    i.lr11xx_radio_set_rx_with_timeout_in_rtc_step_and_lna_mode 0x0800442c   Section        0  lr11xx_radio.o(i.lr11xx_radio_set_rx_with_timeout_in_rtc_step_and_lna_mode)
    i.lr11xx_radio_set_tx                    0x0800449c   Section        0  lr11xx_radio.o(i.lr11xx_radio_set_tx)
    i.lr11xx_radio_set_tx_params             0x080044b4   Section        0  lr11xx_radio.o(i.lr11xx_radio_set_tx_params)
    i.lr11xx_radio_set_tx_with_timeout_in_rtc_step 0x080044e4   Section        0  lr11xx_radio.o(i.lr11xx_radio_set_tx_with_timeout_in_rtc_step)
    i.lr11xx_regmem_fill_cbuffer_opcode_address 0x0800453c   Section        0  lr11xx_regmem.o(i.lr11xx_regmem_fill_cbuffer_opcode_address)
    lr11xx_regmem_fill_cbuffer_opcode_address 0x0800453d   Thumb Code    22  lr11xx_regmem.o(i.lr11xx_regmem_fill_cbuffer_opcode_address)
    i.lr11xx_regmem_read_buffer8             0x08004554   Section        0  lr11xx_regmem.o(i.lr11xx_regmem_read_buffer8)
    i.lr11xx_regmem_write_buffer8            0x08004584   Section        0  lr11xx_regmem.o(i.lr11xx_regmem_write_buffer8)
    i.lr11xx_regmem_write_regmem32_mask      0x080045a8   Section        0  lr11xx_regmem.o(i.lr11xx_regmem_write_regmem32_mask)
    i.lr11xx_system_calibrate                0x08004604   Section        0  lr11xx_system.o(i.lr11xx_system_calibrate)
    i.lr11xx_system_cfg_lfclk                0x0800462c   Section        0  lr11xx_system.o(i.lr11xx_system_cfg_lfclk)
    i.lr11xx_system_clear_errors             0x08004658   Section        0  lr11xx_system.o(i.lr11xx_system_clear_errors)
    i.lr11xx_system_clear_irq_status         0x08004678   Section        0  lr11xx_system.o(i.lr11xx_system_clear_irq_status)
    i.lr11xx_system_convert_stat1_byte_to_enum 0x080046b8   Section        0  lr11xx_system.o(i.lr11xx_system_convert_stat1_byte_to_enum)
    lr11xx_system_convert_stat1_byte_to_enum 0x080046b9   Thumb Code    14  lr11xx_system.o(i.lr11xx_system_convert_stat1_byte_to_enum)
    i.lr11xx_system_convert_stat2_byte_to_enum 0x080046c6   Section        0  lr11xx_system.o(i.lr11xx_system_convert_stat2_byte_to_enum)
    lr11xx_system_convert_stat2_byte_to_enum 0x080046c7   Thumb Code    20  lr11xx_system.o(i.lr11xx_system_convert_stat2_byte_to_enum)
    i.lr11xx_system_get_and_clear_irq_status 0x080046da   Section        0  lr11xx_system.o(i.lr11xx_system_get_and_clear_irq_status)
    i.lr11xx_system_get_errors               0x08004710   Section        0  lr11xx_system.o(i.lr11xx_system_get_errors)
    i.lr11xx_system_get_status               0x0800474c   Section        0  lr11xx_system.o(i.lr11xx_system_get_status)
    i.lr11xx_system_get_version              0x080047a8   Section        0  lr11xx_system.o(i.lr11xx_system_get_version)
    i.lr11xx_system_reset                    0x080047f0   Section        0  lr11xx_system.o(i.lr11xx_system_reset)
    i.lr11xx_system_set_dio_as_rf_switch     0x080047fc   Section        0  lr11xx_system.o(i.lr11xx_system_set_dio_as_rf_switch)
    i.lr11xx_system_set_dio_irq_params       0x0800485c   Section        0  lr11xx_system.o(i.lr11xx_system_set_dio_irq_params)
    i.lr11xx_system_set_reg_mode             0x080048bc   Section        0  lr11xx_system.o(i.lr11xx_system_set_reg_mode)
    i.lr11xx_system_set_tcxo_mode            0x080048e4   Section        0  lr11xx_system.o(i.lr11xx_system_set_tcxo_mode)
    i.main                                   0x08004924   Section        0  main_per.o(i.main)
    i.main_loop                              0x08004bb0   Section        0  uart_init.o(i.main_loop)
    i.malloc                                 0x08004bf0   Section        0  malloc.o(i.malloc)
    i.on_cad_done_detected                   0x08004c5c   Section        0  apps_common.o(i.on_cad_done_detected)
    i.on_cad_done_undetected                 0x08004cac   Section        0  apps_common.o(i.on_cad_done_undetected)
    i.on_fsk_len_error                       0x08004cfc   Section        0  main_per.o(i.on_fsk_len_error)
    i.on_gnss_scan_done                      0x08004d0c   Section        0  apps_common.o(i.on_gnss_scan_done)
    i.on_header_error                        0x08004d5c   Section        0  apps_common.o(i.on_header_error)
    i.on_lora_rx_timestamp                   0x08004dac   Section        0  apps_common.o(i.on_lora_rx_timestamp)
    i.on_preamble_detected                   0x08004dfc   Section        0  apps_common.o(i.on_preamble_detected)
    i.on_rttof_exchange_valid                0x08004e4c   Section        0  apps_common.o(i.on_rttof_exchange_valid)
    i.on_rttof_request_discarded             0x08004e9c   Section        0  apps_common.o(i.on_rttof_request_discarded)
    i.on_rttof_request_valid                 0x08004eec   Section        0  apps_common.o(i.on_rttof_request_valid)
    i.on_rttof_response_done                 0x08004f3c   Section        0  apps_common.o(i.on_rttof_response_done)
    i.on_rttof_timeout                       0x08004f8c   Section        0  apps_common.o(i.on_rttof_timeout)
    i.on_rx_crc_error                        0x08004fdc   Section        0  main_per.o(i.on_rx_crc_error)
    i.on_rx_done                             0x08004fec   Section        0  main_per.o(i.on_rx_done)
    i.on_rx_timeout                          0x080051bc   Section        0  main_per.o(i.on_rx_timeout)
    i.on_syncword_header_valid               0x080051cc   Section        0  apps_common.o(i.on_syncword_header_valid)
    i.on_tx_done                             0x0800521c   Section        0  main_per.o(i.on_tx_done)
    i.on_wifi_scan_done                      0x08005358   Section        0  apps_common.o(i.on_wifi_scan_done)
    i.per_reception_failure_handling         0x080053a8   Section        0  main_per.o(i.per_reception_failure_handling)
    per_reception_failure_handling           0x080053a9   Thumb Code    90  main_per.o(i.per_reception_failure_handling)
    i.print_common_configuration             0x0800546c   Section        0  apps_common.o(i.print_common_configuration)
    i.print_lora_configuration               0x080055ec   Section        0  apps_common.o(i.print_lora_configuration)
    i.radio_on_dio_irq                       0x080058d4   Section        0  apps_common.o(i.radio_on_dio_irq)
    i.smtc_hal_mcu_gpio_enable_irq           0x080058e0   Section        0  smtc_hal_mcu_gpio_stm32l4.o(i.smtc_hal_mcu_gpio_enable_irq)
    i.smtc_hal_mcu_gpio_get_state            0x0800598c   Section        0  smtc_hal_mcu_gpio_stm32l4.o(i.smtc_hal_mcu_gpio_get_state)
    i.smtc_hal_mcu_gpio_init_input           0x08005a18   Section        0  smtc_hal_mcu_gpio_stm32l4.o(i.smtc_hal_mcu_gpio_init_input)
    i.smtc_hal_mcu_gpio_init_output          0x08005aec   Section        0  smtc_hal_mcu_gpio_stm32l4.o(i.smtc_hal_mcu_gpio_init_output)
    i.smtc_hal_mcu_gpio_set_state            0x08005b70   Section        0  smtc_hal_mcu_gpio_stm32l4.o(i.smtc_hal_mcu_gpio_set_state)
    i.smtc_hal_mcu_gpio_stm32l4_call_exti_callback 0x08005ba8   Section        0  smtc_hal_mcu_gpio_stm32l4.o(i.smtc_hal_mcu_gpio_stm32l4_call_exti_callback)
    smtc_hal_mcu_gpio_stm32l4_call_exti_callback 0x08005ba9   Thumb Code    88  smtc_hal_mcu_gpio_stm32l4.o(i.smtc_hal_mcu_gpio_stm32l4_call_exti_callback)
    i.smtc_hal_mcu_gpio_stm32l4_enable_clock 0x08005c04   Section        0  smtc_hal_mcu_gpio_stm32l4.o(i.smtc_hal_mcu_gpio_stm32l4_enable_clock)
    smtc_hal_mcu_gpio_stm32l4_enable_clock   0x08005c05   Thumb Code   124  smtc_hal_mcu_gpio_stm32l4.o(i.smtc_hal_mcu_gpio_stm32l4_enable_clock)
    i.smtc_hal_mcu_gpio_stm32l4_get_exti_cfg 0x08005c9c   Section        0  smtc_hal_mcu_gpio_stm32l4.o(i.smtc_hal_mcu_gpio_stm32l4_get_exti_cfg)
    smtc_hal_mcu_gpio_stm32l4_get_exti_cfg   0x08005c9d   Thumb Code   486  smtc_hal_mcu_gpio_stm32l4.o(i.smtc_hal_mcu_gpio_stm32l4_get_exti_cfg)
    i.smtc_hal_mcu_gpio_stm32l4_get_free_slot 0x08005eb0   Section        0  smtc_hal_mcu_gpio_stm32l4.o(i.smtc_hal_mcu_gpio_stm32l4_get_free_slot)
    smtc_hal_mcu_gpio_stm32l4_get_free_slot  0x08005eb1   Thumb Code    38  smtc_hal_mcu_gpio_stm32l4.o(i.smtc_hal_mcu_gpio_stm32l4_get_free_slot)
    i.smtc_hal_mcu_gpio_stm32l4_get_trigger  0x08005edc   Section        0  smtc_hal_mcu_gpio_stm32l4.o(i.smtc_hal_mcu_gpio_stm32l4_get_trigger)
    smtc_hal_mcu_gpio_stm32l4_get_trigger    0x08005edd   Thumb Code    52  smtc_hal_mcu_gpio_stm32l4.o(i.smtc_hal_mcu_gpio_stm32l4_get_trigger)
    i.smtc_hal_mcu_gpio_stm32l4_is_configured 0x08005f10   Section        0  smtc_hal_mcu_gpio_stm32l4.o(i.smtc_hal_mcu_gpio_stm32l4_is_configured)
    smtc_hal_mcu_gpio_stm32l4_is_configured  0x08005f11   Thumb Code    70  smtc_hal_mcu_gpio_stm32l4.o(i.smtc_hal_mcu_gpio_stm32l4_is_configured)
    i.smtc_hal_mcu_gpio_stm32l4_is_real_inst 0x08005f5c   Section        0  smtc_hal_mcu_gpio_stm32l4.o(i.smtc_hal_mcu_gpio_stm32l4_is_real_inst)
    smtc_hal_mcu_gpio_stm32l4_is_real_inst   0x08005f5d   Thumb Code    34  smtc_hal_mcu_gpio_stm32l4.o(i.smtc_hal_mcu_gpio_stm32l4_is_real_inst)
    i.smtc_hal_mcu_init                      0x08005f84   Section        0  smtc_hal_mcu_stm32l4.o(i.smtc_hal_mcu_init)
    i.smtc_hal_mcu_spi_init                  0x08006154   Section        0  smtc_hal_mcu_spi_stm32l4.o(i.smtc_hal_mcu_spi_init)
    i.smtc_hal_mcu_spi_rw_buffer             0x0800626c   Section        0  smtc_hal_mcu_spi_stm32l4.o(i.smtc_hal_mcu_spi_rw_buffer)
    i.smtc_hal_mcu_spi_stm32l4_get_free_slot 0x080062f8   Section        0  smtc_hal_mcu_spi_stm32l4.o(i.smtc_hal_mcu_spi_stm32l4_get_free_slot)
    smtc_hal_mcu_spi_stm32l4_get_free_slot   0x080062f9   Thumb Code    30  smtc_hal_mcu_spi_stm32l4.o(i.smtc_hal_mcu_spi_stm32l4_get_free_slot)
    i.smtc_hal_mcu_spi_stm32l4_is_real_inst  0x0800631c   Section        0  smtc_hal_mcu_spi_stm32l4.o(i.smtc_hal_mcu_spi_stm32l4_is_real_inst)
    smtc_hal_mcu_spi_stm32l4_is_real_inst    0x0800631d   Thumb Code    30  smtc_hal_mcu_spi_stm32l4.o(i.smtc_hal_mcu_spi_stm32l4_is_real_inst)
    i.smtc_hal_mcu_uart_init                 0x08006340   Section        0  smtc_hal_mcu_uart_stm32l4.o(i.smtc_hal_mcu_uart_init)
    i.smtc_hal_mcu_uart_send                 0x08006484   Section        0  smtc_hal_mcu_uart_stm32l4.o(i.smtc_hal_mcu_uart_send)
    i.smtc_hal_mcu_uart_stm32l4_get_free_slot 0x080064c8   Section        0  smtc_hal_mcu_uart_stm32l4.o(i.smtc_hal_mcu_uart_stm32l4_get_free_slot)
    smtc_hal_mcu_uart_stm32l4_get_free_slot  0x080064c9   Thumb Code    36  smtc_hal_mcu_uart_stm32l4.o(i.smtc_hal_mcu_uart_stm32l4_get_free_slot)
    i.smtc_shield_lr1120mb1dis_get_lfclk_cfg 0x080064f0   Section        0  smtc_shield_lr1120mb1dis.o(i.smtc_shield_lr1120mb1dis_get_lfclk_cfg)
    i.smtc_shield_lr1120mb1dis_get_pa_pwr_cfg 0x080064f8   Section        0  smtc_shield_lr1120mb1dis.o(i.smtc_shield_lr1120mb1dis_get_pa_pwr_cfg)
    i.smtc_shield_lr1120mb1dis_get_pinout    0x08006508   Section        0  smtc_shield_lr1120mb1dis.o(i.smtc_shield_lr1120mb1dis_get_pinout)
    i.smtc_shield_lr1120mb1dis_get_reg_mode  0x08006510   Section        0  smtc_shield_lr1120mb1dis.o(i.smtc_shield_lr1120mb1dis_get_reg_mode)
    i.smtc_shield_lr1120mb1dis_get_rf_switch_cfg 0x08006518   Section        0  smtc_shield_lr1120mb1dis.o(i.smtc_shield_lr1120mb1dis_get_rf_switch_cfg)
    i.smtc_shield_lr1120mb1dis_get_rssi_calibration_table 0x08006520   Section        0  smtc_shield_lr1120mb1dis.o(i.smtc_shield_lr1120mb1dis_get_rssi_calibration_table)
    i.smtc_shield_lr1120mb1dis_get_xosc_cfg  0x0800652c   Section        0  smtc_shield_lr1120mb1dis.o(i.smtc_shield_lr1120mb1dis_get_xosc_cfg)
    i.smtc_shield_lr1120mb1dxs_common_get_pa_pwr_cfg 0x08006534   Section        0  smtc_shield_lr1120mb1dxs_common.o(i.smtc_shield_lr1120mb1dxs_common_get_pa_pwr_cfg)
    i.smtc_shield_lr11x0_common_get_xosc_cfg 0x080065bc   Section        0  smtc_shield_lr11x0_common.o(i.smtc_shield_lr11x0_common_get_xosc_cfg)
    i.smtc_shield_lr11x0_common_rttof_recommended_rx_tx_delay_indicator 0x080065c4   Section        0  smtc_shield_lr11x0_common.o(i.smtc_shield_lr11x0_common_rttof_recommended_rx_tx_delay_indicator)
    i.smtc_shield_lr11xx_common_get_lfclk_cfg 0x0800667c   Section        0  smtc_shield_lr11xx_common.o(i.smtc_shield_lr11xx_common_get_lfclk_cfg)
    i.smtc_shield_lr11xx_common_get_pinout   0x08006684   Section        0  smtc_shield_lr11xx_common.o(i.smtc_shield_lr11xx_common_get_pinout)
    i.smtc_shield_lr11xx_common_get_reg_mode 0x0800668c   Section        0  smtc_shield_lr11xx_common.o(i.smtc_shield_lr11xx_common_get_reg_mode)
    i.smtc_shield_lr11xx_common_get_rf_switch_cfg 0x08006690   Section        0  smtc_shield_lr11xx_common.o(i.smtc_shield_lr11xx_common_get_rf_switch_cfg)
    i.smtc_shield_lr11xx_get_pa_pwr_cfg      0x08006698   Section        0  apps_common.o(i.smtc_shield_lr11xx_get_pa_pwr_cfg)
    smtc_shield_lr11xx_get_pa_pwr_cfg        0x08006699   Thumb Code    18  apps_common.o(i.smtc_shield_lr11xx_get_pa_pwr_cfg)
    i.smtc_shield_lr11xx_get_rssi_calibration_table 0x080066aa   Section        0  apps_common.o(i.smtc_shield_lr11xx_get_rssi_calibration_table)
    smtc_shield_lr11xx_get_rssi_calibration_table 0x080066ab   Thumb Code    14  apps_common.o(i.smtc_shield_lr11xx_get_rssi_calibration_table)
    i.smtc_shield_lr11xx_get_rssi_calibration_table 0x080066b8   Section        0  smtc_shield_lr11xx_common.o(i.smtc_shield_lr11xx_get_rssi_calibration_table)
    i.smtc_shield_pinout_mapping_get_gpio_cfg 0x080066ec   Section        0  smtc_shield_pinout_mapping.o(i.smtc_shield_pinout_mapping_get_gpio_cfg)
    i.uart_init                              0x080066fc   Section        0  uart_init.o(i.uart_init)
    i.uart_init_base                         0x08006838   Section        0  uart_init.o(i.uart_init_base)
    uart_init_base                           0x08006839   Thumb Code   100  uart_init.o(i.uart_init_base)
    i.uart_rx_callback                       0x08006930   Section        0  uart_init.o(i.uart_rx_callback)
    uart_rx_callback                         0x08006931   Thumb Code   158  uart_init.o(i.uart_rx_callback)
    i.vprint                                 0x08006a14   Section        0  uart_init.o(i.vprint)
    .constdata                               0x08006a44   Section      214  apps_common.o(.constdata)
    gfsk_sync_word                           0x08006a44   Data           8  apps_common.o(.constdata)
    lora_pkt_params                          0x08006a4c   Data           6  apps_common.o(.constdata)
    gfsk_mod_params                          0x08006a54   Data          12  apps_common.o(.constdata)
    gfsk_pkt_params                          0x08006a60   Data          10  apps_common.o(.constdata)
    bpsk_mod_params                          0x08006a6c   Data           8  apps_common.o(.constdata)
    __func__                                 0x08006a74   Data          31  apps_common.o(.constdata)
    __func__                                 0x08006a93   Data          33  apps_common.o(.constdata)
    __func__                                 0x08006ab4   Data          30  apps_common.o(.constdata)
    __func__                                 0x08006ad2   Data          36  apps_common.o(.constdata)
    __func__                                 0x08006af6   Data          36  apps_common.o(.constdata)
    .constdata                               0x08006b1c   Section      176  smtc_shield_pinout_mapping.o(.constdata)
    .constdata                               0x08006bcc   Section       12  uart_init.o(.constdata)
    .constdata                               0x08006bd8   Section       66  main_per.o(.constdata)
    gfsk_sync_word                           0x08006bd8   Data           8  main_per.o(.constdata)
    __func__                                 0x08006be0   Data           5  main_per.o(.constdata)
    __func__                                 0x08006be5   Data          11  main_per.o(.constdata)
    __func__                                 0x08006bf0   Data          11  main_per.o(.constdata)
    __func__                                 0x08006bfb   Data          31  main_per.o(.constdata)
    .constdata                               0x08006c1c   Section       72  system_stm32l4xx.o(.constdata)
    .constdata                               0x08006c64   Section       84  smtc_hal_mcu_gpio_stm32l4.o(.constdata)
    .constdata                               0x08006cb8   Section       76  smtc_hal_mcu_uart_stm32l4.o(.constdata)
    .constdata                               0x08006d04   Section      112  smtc_hal_mcu_spi_stm32l4.o(.constdata)
    .constdata                               0x08006d74   Section       78  smtc_shield_lr11xx_common.o(.constdata)
    smtc_shield_lr11xx_common_rssi_calibration_table_below_600mhz 0x08006d74   Data          20  smtc_shield_lr11xx_common.o(.constdata)
    smtc_shield_lr11xx_common_rssi_calibration_table_from_600mhz_to_2ghz 0x08006d88   Data          20  smtc_shield_lr11xx_common.o(.constdata)
    smtc_shield_lr11xx_common_rssi_calibration_table_above_2ghz 0x08006d9c   Data          20  smtc_shield_lr11xx_common.o(.constdata)
    .constdata                               0x08006dc4   Section      296  smtc_shield_lr11x0_common.o(.constdata)
    rttof_delay_indicator_table_below_600mhz 0x08006dc4   Data          96  smtc_shield_lr11x0_common.o(.constdata)
    rttof_delay_indicator_table_from_600mhz_to_2ghz 0x08006e24   Data          96  smtc_shield_lr11x0_common.o(.constdata)
    rttof_delay_indicator_table_above_2ghz   0x08006e84   Data          96  smtc_shield_lr11x0_common.o(.constdata)
    .constdata                               0x08006eec   Section      360  smtc_shield_lr1120mb1dxs_common.o(.constdata)
    .conststring                             0x08007054   Section      212  apps_common.o(.conststring)
    .conststring                             0x08007128   Section       75  uart_init.o(.conststring)
    .conststring                             0x08007174   Section        9  main_per.o(.conststring)
    .data                                    0x20000000   Section       52  apps_common.o(.data)
    lora_mod_params                          0x20000020   Data           4  apps_common.o(.data)
    bpsk_pkt_params                          0x20000024   Data           8  apps_common.o(.data)
    irq_fired                                0x2000002c   Data           1  apps_common.o(.data)
    shield_pinout                            0x20000030   Data           4  apps_common.o(.data)
    .data                                    0x20000034   Section       28  uart_init.o(.data)
    inst_uart                                0x2000003c   Data           4  uart_init.o(.data)
    atc_events                               0x20000040   Data          16  uart_init.o(.data)
    .data                                    0x20000050   Section       40  main_per.o(.data)
    context                                  0x20000054   Data           4  main_per.o(.data)
    buffer                                   0x20000058   Data           7  main_per.o(.data)
    nb_ok                                    0x20000060   Data           2  main_per.o(.data)
    nb_rx_timeout                            0x20000062   Data           2  main_per.o(.data)
    nb_rx_error                              0x20000064   Data           2  main_per.o(.data)
    nb_fsk_len_error                         0x20000066   Data           2  main_per.o(.data)
    rolling_counter                          0x20000068   Data           1  main_per.o(.data)
    per_index                                0x2000006a   Data           2  main_per.o(.data)
    first_pkt_flag                           0x2000006c   Data           1  main_per.o(.data)
    per_msg                                  0x2000006d   Data           7  main_per.o(.data)
    rx_timeout                               0x20000074   Data           4  main_per.o(.data)
    .data                                    0x20000078   Section        4  system_stm32l4xx.o(.data)
    .data                                    0x2000007c   Section        4  mvars.o(.data)
    .data                                    0x20000080   Section        4  mvars.o(.data)
    .bss                                     0x20000084   Section      120  apps_common.o(.bss)
    context                                  0x20000084   Data          72  apps_common.o(.bss)
    led_tx                                   0x200000cc   Data          12  apps_common.o(.bss)
    led_rx                                   0x200000d8   Data          12  apps_common.o(.bss)
    led_scan                                 0x200000e4   Data          12  apps_common.o(.bss)
    lna_ctrl                                 0x200000f0   Data          12  apps_common.o(.bss)
    .bss                                     0x200000fc   Section      288  uart_init.o(.bss)
    atc_handle                               0x200001fc   Data          32  uart_init.o(.bss)
    .bss                                     0x2000021c   Section      768  smtc_hal_mcu_gpio_stm32l4.o(.bss)
    gpio_inst_array                          0x2000021c   Data         768  smtc_hal_mcu_gpio_stm32l4.o(.bss)
    .bss                                     0x2000051c   Section       12  smtc_hal_mcu_uart_stm32l4.o(.bss)
    uart_inst_array                          0x2000051c   Data          12  smtc_hal_mcu_uart_stm32l4.o(.bss)
    .bss                                     0x20000528   Section       16  smtc_hal_mcu_timer_stm32l4.o(.bss)
    tim_inst_array                           0x20000528   Data          16  smtc_hal_mcu_timer_stm32l4.o(.bss)
    .bss                                     0x20000538   Section       32  smtc_hal_mcu_spi_stm32l4.o(.bss)
    spi_inst_array                           0x20000538   Data          32  smtc_hal_mcu_spi_stm32l4.o(.bss)
    HEAP                                     0x20000558   Section      512  startup_stm32l476xx.o(HEAP)
    STACK                                    0x20000758   Section     1024  startup_stm32l476xx.o(STACK)

    Global Symbols

    Symbol Name                              Value     Ov Type        Size  Object(Section)

    BuildAttributes$$THM_ISAv4$E$P$D$K$B$S$7EM$VFPi3$EXTD16$VFPS$VFMA$PE$A:L22UL41UL21$X:L11$S22US41US21$IEEE1$IW$USESV6$~STKCKD$USESV7$~SHL$OTIME$ROPI$EBA8$MICROLIB$REQ8$PRES8$EABIv2 0x00000000   Number         0  anon$$obj.o ABSOLUTE
    __ARM_use_no_argv                        0x00000000   Number         0  main_per.o ABSOLUTE
    __cpp_initialize__aeabi_                  - Undefined Weak Reference
    __cxa_finalize                            - Undefined Weak Reference
    __decompress                              - Undefined Weak Reference
    _clock_init                               - Undefined Weak Reference
    _microlib_exit                            - Undefined Weak Reference
    __Vectors_Size                           0x00000188   Number         0  startup_stm32l476xx.o ABSOLUTE
    __Vectors                                0x08000000   Data           4  startup_stm32l476xx.o(RESET)
    __Vectors_End                            0x08000188   Data           0  startup_stm32l476xx.o(RESET)
    __main                                   0x08000189   Thumb Code     0  entry.o(.ARM.Collect$$$$00000000)
    _main_stk                                0x08000189   Thumb Code     0  entry2.o(.ARM.Collect$$$$00000001)
    _main_scatterload                        0x0800018d   Thumb Code     0  entry5.o(.ARM.Collect$$$$00000004)
    __main_after_scatterload                 0x08000191   Thumb Code     0  entry5.o(.ARM.Collect$$$$00000004)
    _main_clock                              0x08000191   Thumb Code     0  entry7b.o(.ARM.Collect$$$$00000008)
    _main_cpp_init                           0x08000191   Thumb Code     0  entry8b.o(.ARM.Collect$$$$0000000A)
    _main_init                               0x08000191   Thumb Code     0  entry9a.o(.ARM.Collect$$$$0000000B)
    __rt_final_cpp                           0x08000199   Thumb Code     0  entry10a.o(.ARM.Collect$$$$0000000D)
    __rt_final_exit                          0x08000199   Thumb Code     0  entry11a.o(.ARM.Collect$$$$0000000F)
    Reset_Handler                            0x0800019d   Thumb Code     8  startup_stm32l476xx.o(.text)
    NMI_Handler                              0x080001a5   Thumb Code     2  startup_stm32l476xx.o(.text)
    HardFault_Handler                        0x080001a7   Thumb Code     2  startup_stm32l476xx.o(.text)
    MemManage_Handler                        0x080001a9   Thumb Code     2  startup_stm32l476xx.o(.text)
    BusFault_Handler                         0x080001ab   Thumb Code     2  startup_stm32l476xx.o(.text)
    UsageFault_Handler                       0x080001ad   Thumb Code     2  startup_stm32l476xx.o(.text)
    SVC_Handler                              0x080001af   Thumb Code     2  startup_stm32l476xx.o(.text)
    DebugMon_Handler                         0x080001b1   Thumb Code     2  startup_stm32l476xx.o(.text)
    PendSV_Handler                           0x080001b3   Thumb Code     2  startup_stm32l476xx.o(.text)
    SysTick_Handler                          0x080001b5   Thumb Code     2  startup_stm32l476xx.o(.text)
    ADC1_2_IRQHandler                        0x080001b7   Thumb Code     0  startup_stm32l476xx.o(.text)
    ADC3_IRQHandler                          0x080001b7   Thumb Code     0  startup_stm32l476xx.o(.text)
    CAN1_RX0_IRQHandler                      0x080001b7   Thumb Code     0  startup_stm32l476xx.o(.text)
    CAN1_RX1_IRQHandler                      0x080001b7   Thumb Code     0  startup_stm32l476xx.o(.text)
    CAN1_SCE_IRQHandler                      0x080001b7   Thumb Code     0  startup_stm32l476xx.o(.text)
    CAN1_TX_IRQHandler                       0x080001b7   Thumb Code     0  startup_stm32l476xx.o(.text)
    COMP_IRQHandler                          0x080001b7   Thumb Code     0  startup_stm32l476xx.o(.text)
    DFSDM1_FLT0_IRQHandler                   0x080001b7   Thumb Code     0  startup_stm32l476xx.o(.text)
    DFSDM1_FLT1_IRQHandler                   0x080001b7   Thumb Code     0  startup_stm32l476xx.o(.text)
    DFSDM1_FLT2_IRQHandler                   0x080001b7   Thumb Code     0  startup_stm32l476xx.o(.text)
    DFSDM1_FLT3_IRQHandler                   0x080001b7   Thumb Code     0  startup_stm32l476xx.o(.text)
    DMA1_Channel1_IRQHandler                 0x080001b7   Thumb Code     0  startup_stm32l476xx.o(.text)
    DMA1_Channel2_IRQHandler                 0x080001b7   Thumb Code     0  startup_stm32l476xx.o(.text)
    DMA1_Channel3_IRQHandler                 0x080001b7   Thumb Code     0  startup_stm32l476xx.o(.text)
    DMA1_Channel4_IRQHandler                 0x080001b7   Thumb Code     0  startup_stm32l476xx.o(.text)
    DMA1_Channel5_IRQHandler                 0x080001b7   Thumb Code     0  startup_stm32l476xx.o(.text)
    DMA1_Channel6_IRQHandler                 0x080001b7   Thumb Code     0  startup_stm32l476xx.o(.text)
    DMA1_Channel7_IRQHandler                 0x080001b7   Thumb Code     0  startup_stm32l476xx.o(.text)
    DMA2_Channel1_IRQHandler                 0x080001b7   Thumb Code     0  startup_stm32l476xx.o(.text)
    DMA2_Channel2_IRQHandler                 0x080001b7   Thumb Code     0  startup_stm32l476xx.o(.text)
    DMA2_Channel3_IRQHandler                 0x080001b7   Thumb Code     0  startup_stm32l476xx.o(.text)
    DMA2_Channel4_IRQHandler                 0x080001b7   Thumb Code     0  startup_stm32l476xx.o(.text)
    DMA2_Channel5_IRQHandler                 0x080001b7   Thumb Code     0  startup_stm32l476xx.o(.text)
    DMA2_Channel6_IRQHandler                 0x080001b7   Thumb Code     0  startup_stm32l476xx.o(.text)
    DMA2_Channel7_IRQHandler                 0x080001b7   Thumb Code     0  startup_stm32l476xx.o(.text)
    FLASH_IRQHandler                         0x080001b7   Thumb Code     0  startup_stm32l476xx.o(.text)
    FMC_IRQHandler                           0x080001b7   Thumb Code     0  startup_stm32l476xx.o(.text)
    FPU_IRQHandler                           0x080001b7   Thumb Code     0  startup_stm32l476xx.o(.text)
    I2C1_ER_IRQHandler                       0x080001b7   Thumb Code     0  startup_stm32l476xx.o(.text)
    I2C1_EV_IRQHandler                       0x080001b7   Thumb Code     0  startup_stm32l476xx.o(.text)
    I2C2_ER_IRQHandler                       0x080001b7   Thumb Code     0  startup_stm32l476xx.o(.text)
    I2C2_EV_IRQHandler                       0x080001b7   Thumb Code     0  startup_stm32l476xx.o(.text)
    I2C3_ER_IRQHandler                       0x080001b7   Thumb Code     0  startup_stm32l476xx.o(.text)
    I2C3_EV_IRQHandler                       0x080001b7   Thumb Code     0  startup_stm32l476xx.o(.text)
    LCD_IRQHandler                           0x080001b7   Thumb Code     0  startup_stm32l476xx.o(.text)
    LPTIM2_IRQHandler                        0x080001b7   Thumb Code     0  startup_stm32l476xx.o(.text)
    LPUART1_IRQHandler                       0x080001b7   Thumb Code     0  startup_stm32l476xx.o(.text)
    OTG_FS_IRQHandler                        0x080001b7   Thumb Code     0  startup_stm32l476xx.o(.text)
    PVD_PVM_IRQHandler                       0x080001b7   Thumb Code     0  startup_stm32l476xx.o(.text)
    QUADSPI_IRQHandler                       0x080001b7   Thumb Code     0  startup_stm32l476xx.o(.text)
    RCC_IRQHandler                           0x080001b7   Thumb Code     0  startup_stm32l476xx.o(.text)
    RNG_IRQHandler                           0x080001b7   Thumb Code     0  startup_stm32l476xx.o(.text)
    RTC_Alarm_IRQHandler                     0x080001b7   Thumb Code     0  startup_stm32l476xx.o(.text)
    RTC_WKUP_IRQHandler                      0x080001b7   Thumb Code     0  startup_stm32l476xx.o(.text)
    SAI1_IRQHandler                          0x080001b7   Thumb Code     0  startup_stm32l476xx.o(.text)
    SAI2_IRQHandler                          0x080001b7   Thumb Code     0  startup_stm32l476xx.o(.text)
    SDMMC1_IRQHandler                        0x080001b7   Thumb Code     0  startup_stm32l476xx.o(.text)
    SPI1_IRQHandler                          0x080001b7   Thumb Code     0  startup_stm32l476xx.o(.text)
    SPI2_IRQHandler                          0x080001b7   Thumb Code     0  startup_stm32l476xx.o(.text)
    SPI3_IRQHandler                          0x080001b7   Thumb Code     0  startup_stm32l476xx.o(.text)
    SWPMI1_IRQHandler                        0x080001b7   Thumb Code     0  startup_stm32l476xx.o(.text)
    TAMP_STAMP_IRQHandler                    0x080001b7   Thumb Code     0  startup_stm32l476xx.o(.text)
    TIM1_BRK_TIM15_IRQHandler                0x080001b7   Thumb Code     0  startup_stm32l476xx.o(.text)
    TIM1_CC_IRQHandler                       0x080001b7   Thumb Code     0  startup_stm32l476xx.o(.text)
    TIM1_TRG_COM_TIM17_IRQHandler            0x080001b7   Thumb Code     0  startup_stm32l476xx.o(.text)
    TIM1_UP_TIM16_IRQHandler                 0x080001b7   Thumb Code     0  startup_stm32l476xx.o(.text)
    TIM2_IRQHandler                          0x080001b7   Thumb Code     0  startup_stm32l476xx.o(.text)
    TIM3_IRQHandler                          0x080001b7   Thumb Code     0  startup_stm32l476xx.o(.text)
    TIM4_IRQHandler                          0x080001b7   Thumb Code     0  startup_stm32l476xx.o(.text)
    TIM5_IRQHandler                          0x080001b7   Thumb Code     0  startup_stm32l476xx.o(.text)
    TIM6_DAC_IRQHandler                      0x080001b7   Thumb Code     0  startup_stm32l476xx.o(.text)
    TIM7_IRQHandler                          0x080001b7   Thumb Code     0  startup_stm32l476xx.o(.text)
    TIM8_BRK_IRQHandler                      0x080001b7   Thumb Code     0  startup_stm32l476xx.o(.text)
    TIM8_CC_IRQHandler                       0x080001b7   Thumb Code     0  startup_stm32l476xx.o(.text)
    TIM8_TRG_COM_IRQHandler                  0x080001b7   Thumb Code     0  startup_stm32l476xx.o(.text)
    TIM8_UP_IRQHandler                       0x080001b7   Thumb Code     0  startup_stm32l476xx.o(.text)
    TSC_IRQHandler                           0x080001b7   Thumb Code     0  startup_stm32l476xx.o(.text)
    UART4_IRQHandler                         0x080001b7   Thumb Code     0  startup_stm32l476xx.o(.text)
    UART5_IRQHandler                         0x080001b7   Thumb Code     0  startup_stm32l476xx.o(.text)
    USART1_IRQHandler                        0x080001b7   Thumb Code     0  startup_stm32l476xx.o(.text)
    USART3_IRQHandler                        0x080001b7   Thumb Code     0  startup_stm32l476xx.o(.text)
    WWDG_IRQHandler                          0x080001b7   Thumb Code     0  startup_stm32l476xx.o(.text)
    __aeabi_memcpy                           0x080001c1   Thumb Code    36  memcpya.o(.text)
    __aeabi_memcpy4                          0x080001c1   Thumb Code     0  memcpya.o(.text)
    __aeabi_memcpy8                          0x080001c1   Thumb Code     0  memcpya.o(.text)
    __aeabi_memset                           0x080001e5   Thumb Code    14  memseta.o(.text)
    __aeabi_memset4                          0x080001e5   Thumb Code     0  memseta.o(.text)
    __aeabi_memset8                          0x080001e5   Thumb Code     0  memseta.o(.text)
    __aeabi_memclr                           0x080001f3   Thumb Code     4  memseta.o(.text)
    __aeabi_memclr4                          0x080001f3   Thumb Code     0  memseta.o(.text)
    __aeabi_memclr8                          0x080001f3   Thumb Code     0  memseta.o(.text)
    _memset$wrapper                          0x080001f7   Thumb Code    18  memseta.o(.text)
    strstr                                   0x08000209   Thumb Code    36  strstr.o(.text)
    strncpy                                  0x0800022d   Thumb Code    24  strncpy.o(.text)
    strlen                                   0x08000245   Thumb Code    14  strlen.o(.text)
    memcmp                                   0x08000253   Thumb Code    26  memcmp.o(.text)
    __aeabi_dadd                             0x0800026d   Thumb Code   322  dadd.o(.text)
    __aeabi_dsub                             0x080003af   Thumb Code     6  dadd.o(.text)
    __aeabi_drsub                            0x080003b5   Thumb Code     6  dadd.o(.text)
    __aeabi_dmul                             0x080003cb   Thumb Code   228  dmul.o(.text)
    __aeabi_ddiv                             0x080004b5   Thumb Code   222  ddiv.o(.text)
    __aeabi_uidiv                            0x08000593   Thumb Code     0  uidiv.o(.text)
    __aeabi_uidivmod                         0x08000593   Thumb Code    44  uidiv.o(.text)
    __aeabi_uldivmod                         0x080005bf   Thumb Code    98  uldiv.o(.text)
    __aeabi_llsl                             0x08000627   Thumb Code    30  llshl.o(.text)
    _ll_shift_l                              0x08000627   Thumb Code     0  llshl.o(.text)
    __aeabi_lasr                             0x08000645   Thumb Code    36  llsshr.o(.text)
    _ll_sshift_r                             0x08000645   Thumb Code     0  llsshr.o(.text)
    __I$use$fp                               0x08000669   Thumb Code     0  iusefp.o(.text)
    _double_round                            0x08000669   Thumb Code    30  depilogue.o(.text)
    _double_epilogue                         0x08000687   Thumb Code   156  depilogue.o(.text)
    __aeabi_d2ulz                            0x08000723   Thumb Code    48  dfixul.o(.text)
    __aeabi_cdrcmple                         0x08000755   Thumb Code    48  cdrcmple.o(.text)
    __scatterload                            0x08000785   Thumb Code    28  init.o(.text)
    __scatterload_rt2                        0x08000785   Thumb Code     0  init.o(.text)
    __aeabi_llsr                             0x080007a9   Thumb Code    32  llushr.o(.text)
    _ll_ushift_r                             0x080007a9   Thumb Code     0  llushr.o(.text)
    ATC_IdleLine                             0x080007c9   Thumb Code   180  uart_init.o(i.ATC_IdleLine)
    ATC_Init                                 0x08000949   Thumb Code   196  atc.o(i.ATC_Init)
    ATC_Loop                                 0x08000aa1   Thumb Code   174  atc.o(i.ATC_Loop)
    ATC_SetEvents                            0x08000bc1   Thumb Code    74  atc.o(i.ATC_SetEvents)
    EXTI0_IRQHandler                         0x08000c49   Thumb Code    24  smtc_hal_mcu_gpio_stm32l4.o(i.EXTI0_IRQHandler)
    EXTI15_10_IRQHandler                     0x08000c61   Thumb Code   160  smtc_hal_mcu_gpio_stm32l4.o(i.EXTI15_10_IRQHandler)
    EXTI1_IRQHandler                         0x08000d01   Thumb Code    24  smtc_hal_mcu_gpio_stm32l4.o(i.EXTI1_IRQHandler)
    EXTI2_IRQHandler                         0x08000d19   Thumb Code    24  smtc_hal_mcu_gpio_stm32l4.o(i.EXTI2_IRQHandler)
    EXTI3_IRQHandler                         0x08000d31   Thumb Code    24  smtc_hal_mcu_gpio_stm32l4.o(i.EXTI3_IRQHandler)
    EXTI4_IRQHandler                         0x08000d49   Thumb Code    24  smtc_hal_mcu_gpio_stm32l4.o(i.EXTI4_IRQHandler)
    EXTI9_5_IRQHandler                       0x08000d61   Thumb Code   116  smtc_hal_mcu_gpio_stm32l4.o(i.EXTI9_5_IRQHandler)
    LL_EXTI_Init                             0x08000ef5   Thumb Code   362  stm32l4xx_ll_exti.o(i.LL_EXTI_Init)
    LL_GPIO_Init                             0x0800107d   Thumb Code   302  stm32l4xx_ll_gpio.o(i.LL_GPIO_Init)
    LL_Init1msTick                           0x080011ab   Thumb Code    28  stm32l4xx_ll_utils.o(i.LL_Init1msTick)
    LL_RCC_GetUARTClockFreq                  0x080011c9   Thumb Code   194  stm32l4xx_ll_rcc.o(i.LL_RCC_GetUARTClockFreq)
    LL_RCC_GetUSARTClockFreq                 0x080012a9   Thumb Code   278  stm32l4xx_ll_rcc.o(i.LL_RCC_GetUSARTClockFreq)
    LL_SPI_Init                              0x08001459   Thumb Code   126  stm32l4xx_ll_spi.o(i.LL_SPI_Init)
    LL_SetSystemCoreClock                    0x080014d9   Thumb Code     6  stm32l4xx_ll_utils.o(i.LL_SetSystemCoreClock)
    LL_USART_Init                            0x080014e5   Thumb Code   238  stm32l4xx_ll_usart.o(i.LL_USART_Init)
    LL_mDelay                                0x0800160b   Thumb Code    44  stm32l4xx_ll_utils.o(i.LL_mDelay)
    LPTIM1_IRQHandler                        0x08001639   Thumb Code    80  smtc_hal_mcu_timer_stm32l4.o(i.LPTIM1_IRQHandler)
    SystemInit                               0x08001889   Thumb Code    14  system_stm32l4xx.o(i.SystemInit)
    USART2_IRQHandler                        0x0800189d   Thumb Code    98  smtc_hal_mcu_uart_stm32l4.o(i.USART2_IRQHandler)
    __0vsprintf                              0x08001909   Thumb Code    30  printfa.o(i.__0vsprintf)
    __1vsprintf                              0x08001909   Thumb Code     0  printfa.o(i.__0vsprintf)
    __2vsprintf                              0x08001909   Thumb Code     0  printfa.o(i.__0vsprintf)
    __c89vsprintf                            0x08001909   Thumb Code     0  printfa.o(i.__0vsprintf)
    vsprintf                                 0x08001909   Thumb Code     0  printfa.o(i.__0vsprintf)
    __scatterload_copy                       0x0800192d   Thumb Code    14  handlers.o(i.__scatterload_copy)
    __scatterload_null                       0x0800193b   Thumb Code     2  handlers.o(i.__scatterload_null)
    __scatterload_zeroinit                   0x0800193d   Thumb Code    14  handlers.o(i.__scatterload_zeroinit)
    apps_common_lr11xx_fetch_and_print_version 0x08002291   Thumb Code    20  apps_common.o(i.apps_common_lr11xx_fetch_and_print_version)
    apps_common_lr11xx_fetch_version         0x080022a5   Thumb Code    66  apps_common.o(i.apps_common_lr11xx_fetch_version)
    apps_common_lr11xx_get_context           0x08002355   Thumb Code   180  apps_common.o(i.apps_common_lr11xx_get_context)
    apps_common_lr11xx_handle_post_rx        0x08002415   Thumb Code    24  apps_common.o(i.apps_common_lr11xx_handle_post_rx)
    apps_common_lr11xx_handle_post_tx        0x08002435   Thumb Code    24  apps_common.o(i.apps_common_lr11xx_handle_post_tx)
    apps_common_lr11xx_handle_pre_rx         0x08002455   Thumb Code    24  apps_common.o(i.apps_common_lr11xx_handle_pre_rx)
    apps_common_lr11xx_handle_pre_tx         0x08002475   Thumb Code    24  apps_common.o(i.apps_common_lr11xx_handle_pre_tx)
    apps_common_lr11xx_irq_process           0x08002495   Thumb Code   922  apps_common.o(i.apps_common_lr11xx_irq_process)
    apps_common_lr11xx_print_version         0x08002a2d   Thumb Code   276  apps_common.o(i.apps_common_lr11xx_print_version)
    apps_common_lr11xx_radio_init            0x08002c35   Thumb Code   658  apps_common.o(i.apps_common_lr11xx_radio_init)
    apps_common_lr11xx_receive               0x08002f71   Thumb Code   274  apps_common.o(i.apps_common_lr11xx_receive)
    apps_common_lr11xx_system_init           0x08003149   Thumb Code   678  apps_common.o(i.apps_common_lr11xx_system_init)
    apps_common_shield_init                  0x0800346d   Thumb Code   206  apps_common.o(i.apps_common_shield_init)
    atc_per_event_callback                   0x08003555   Thumb Code    64  uart_init.o(i.atc_per_event_callback)
    free                                     0x080035e5   Thumb Code    76  malloc.o(i.free)
    get_time_on_air_in_ms                    0x08003635   Thumb Code    36  apps_common.o(i.get_time_on_air_in_ms)
    hal_mcu_trace_print                      0x08003669   Thumb Code    26  smtc_hal_dbg_trace.o(i.hal_mcu_trace_print)
    lr11xx_hal_direct_read                   0x08003683   Thumb Code    52  lr11xx_hal.o(i.lr11xx_hal_direct_read)
    lr11xx_hal_read                          0x080036b7   Thumb Code   110  lr11xx_hal.o(i.lr11xx_hal_read)
    lr11xx_hal_reset                         0x0800372b   Thumb Code    32  lr11xx_hal.o(i.lr11xx_hal_reset)
    lr11xx_hal_wait_on_busy                  0x0800374b   Thumb Code    26  lr11xx_hal.o(i.lr11xx_hal_wait_on_busy)
    lr11xx_hal_write                         0x08003765   Thumb Code    70  lr11xx_hal.o(i.lr11xx_hal_write)
    lr11xx_radio_apply_high_acp_workaround   0x080037ad   Thumb Code    20  lr11xx_radio.o(i.lr11xx_radio_apply_high_acp_workaround)
    lr11xx_radio_cfg_rx_boosted              0x080037c5   Thumb Code    34  lr11xx_radio.o(i.lr11xx_radio_cfg_rx_boosted)
    lr11xx_radio_convert_time_in_ms_to_rtc_step 0x080037ed   Thumb Code    14  lr11xx_radio.o(i.lr11xx_radio_convert_time_in_ms_to_rtc_step)
    lr11xx_radio_fallback_modes_to_str       0x080037fd   Thumb Code    32  lr11xx_radio_types_str.o(i.lr11xx_radio_fallback_modes_to_str)
    lr11xx_radio_get_gfsk_time_on_air_in_ms  0x08003885   Thumb Code    32  lr11xx_radio.o(i.lr11xx_radio_get_gfsk_time_on_air_in_ms)
    lr11xx_radio_get_gfsk_time_on_air_numerator 0x080038a5   Thumb Code   106  lr11xx_radio.o(i.lr11xx_radio_get_gfsk_time_on_air_numerator)
    lr11xx_radio_get_lora_bw_in_hz           0x08003911   Thumb Code    92  lr11xx_radio.o(i.lr11xx_radio_get_lora_bw_in_hz)
    lr11xx_radio_get_lora_pkt_status         0x08003985   Thumb Code    76  lr11xx_radio.o(i.lr11xx_radio_get_lora_pkt_status)
    lr11xx_radio_get_lora_time_on_air_in_ms  0x080039d5   Thumb Code    40  lr11xx_radio.o(i.lr11xx_radio_get_lora_time_on_air_in_ms)
    lr11xx_radio_get_lora_time_on_air_numerator 0x080039fd   Thumb Code   436  lr11xx_radio.o(i.lr11xx_radio_get_lora_time_on_air_numerator)
    lr11xx_radio_get_rx_buffer_status        0x08003bb9   Thumb Code    52  lr11xx_radio.o(i.lr11xx_radio_get_rx_buffer_status)
    lr11xx_radio_lora_bw_to_str              0x08003bf1   Thumb Code    78  lr11xx_radio_types_str.o(i.lr11xx_radio_lora_bw_to_str)
    lr11xx_radio_lora_cr_to_str              0x08003d81   Thumb Code    54  lr11xx_radio_types_str.o(i.lr11xx_radio_lora_cr_to_str)
    lr11xx_radio_lora_crc_to_str             0x08003e9d   Thumb Code    22  lr11xx_radio_types_str.o(i.lr11xx_radio_lora_crc_to_str)
    lr11xx_radio_lora_iq_to_str              0x08003ef5   Thumb Code    22  lr11xx_radio_types_str.o(i.lr11xx_radio_lora_iq_to_str)
    lr11xx_radio_lora_pkt_len_modes_to_str   0x08003f55   Thumb Code    22  lr11xx_radio_types_str.o(i.lr11xx_radio_lora_pkt_len_modes_to_str)
    lr11xx_radio_lora_sf_to_str              0x08003fb5   Thumb Code    56  lr11xx_radio_types_str.o(i.lr11xx_radio_lora_sf_to_str)
    lr11xx_radio_pkt_type_to_str             0x080040b5   Thumb Code    44  lr11xx_radio_types_str.o(i.lr11xx_radio_pkt_type_to_str)
    lr11xx_radio_set_lna_mode                0x08004191   Thumb Code    20  lr11xx_radio.o(i.lr11xx_radio_set_lna_mode)
    lr11xx_radio_set_lora_mod_params         0x080041a9   Thumb Code    56  lr11xx_radio.o(i.lr11xx_radio_set_lora_mod_params)
    lr11xx_radio_set_lora_pkt_params         0x080041e9   Thumb Code    70  lr11xx_radio.o(i.lr11xx_radio_set_lora_pkt_params)
    lr11xx_radio_set_lora_sync_word          0x08004239   Thumb Code    34  lr11xx_radio.o(i.lr11xx_radio_set_lora_sync_word)
    lr11xx_radio_set_pa_cfg                  0x08004261   Thumb Code    56  lr11xx_radio.o(i.lr11xx_radio_set_pa_cfg)
    lr11xx_radio_set_pkt_type                0x080042a1   Thumb Code    34  lr11xx_radio.o(i.lr11xx_radio_set_pkt_type)
    lr11xx_radio_set_rf_freq                 0x080042c9   Thumb Code    56  lr11xx_radio.o(i.lr11xx_radio_set_rf_freq)
    lr11xx_radio_set_rssi_calibration        0x08004309   Thumb Code   192  lr11xx_radio.o(i.lr11xx_radio_set_rssi_calibration)
    lr11xx_radio_set_rx                      0x080043d9   Thumb Code    24  lr11xx_radio.o(i.lr11xx_radio_set_rx)
    lr11xx_radio_set_rx_tx_fallback_mode     0x080043f1   Thumb Code    34  lr11xx_radio.o(i.lr11xx_radio_set_rx_tx_fallback_mode)
    lr11xx_radio_set_rx_with_timeout_in_rtc_step 0x08004419   Thumb Code    18  lr11xx_radio.o(i.lr11xx_radio_set_rx_with_timeout_in_rtc_step)
    lr11xx_radio_set_rx_with_timeout_in_rtc_step_and_lna_mode 0x0800442d   Thumb Code   102  lr11xx_radio.o(i.lr11xx_radio_set_rx_with_timeout_in_rtc_step_and_lna_mode)
    lr11xx_radio_set_tx                      0x0800449d   Thumb Code    24  lr11xx_radio.o(i.lr11xx_radio_set_tx)
    lr11xx_radio_set_tx_params               0x080044b5   Thumb Code    42  lr11xx_radio.o(i.lr11xx_radio_set_tx_params)
    lr11xx_radio_set_tx_with_timeout_in_rtc_step 0x080044e5   Thumb Code    78  lr11xx_radio.o(i.lr11xx_radio_set_tx_with_timeout_in_rtc_step)
    lr11xx_regmem_read_buffer8               0x08004555   Thumb Code    44  lr11xx_regmem.o(i.lr11xx_regmem_read_buffer8)
    lr11xx_regmem_write_buffer8              0x08004585   Thumb Code    30  lr11xx_regmem.o(i.lr11xx_regmem_write_buffer8)
    lr11xx_regmem_write_regmem32_mask        0x080045a9   Thumb Code    92  lr11xx_regmem.o(i.lr11xx_regmem_write_regmem32_mask)
    lr11xx_system_calibrate                  0x08004605   Thumb Code    34  lr11xx_system.o(i.lr11xx_system_calibrate)
    lr11xx_system_cfg_lfclk                  0x0800462d   Thumb Code    40  lr11xx_system.o(i.lr11xx_system_cfg_lfclk)
    lr11xx_system_clear_errors               0x08004659   Thumb Code    28  lr11xx_system.o(i.lr11xx_system_clear_errors)
    lr11xx_system_clear_irq_status           0x08004679   Thumb Code    56  lr11xx_system.o(i.lr11xx_system_clear_irq_status)
    lr11xx_system_get_and_clear_irq_status   0x080046db   Thumb Code    54  lr11xx_system.o(i.lr11xx_system_get_and_clear_irq_status)
    lr11xx_system_get_errors                 0x08004711   Thumb Code    54  lr11xx_system.o(i.lr11xx_system_get_errors)
    lr11xx_system_get_status                 0x0800474d   Thumb Code    90  lr11xx_system.o(i.lr11xx_system_get_status)
    lr11xx_system_get_version                0x080047a9   Thumb Code    66  lr11xx_system.o(i.lr11xx_system_get_version)
    lr11xx_system_reset                      0x080047f1   Thumb Code    12  lr11xx_system.o(i.lr11xx_system_reset)
    lr11xx_system_set_dio_as_rf_switch       0x080047fd   Thumb Code    82  lr11xx_system.o(i.lr11xx_system_set_dio_as_rf_switch)
    lr11xx_system_set_dio_irq_params         0x0800485d   Thumb Code    84  lr11xx_system.o(i.lr11xx_system_set_dio_irq_params)
    lr11xx_system_set_reg_mode               0x080048bd   Thumb Code    34  lr11xx_system.o(i.lr11xx_system_set_reg_mode)
    lr11xx_system_set_tcxo_mode              0x080048e5   Thumb Code    56  lr11xx_system.o(i.lr11xx_system_set_tcxo_mode)
    main                                     0x08004925   Thumb Code   382  main_per.o(i.main)
    main_loop                                0x08004bb1   Thumb Code    52  uart_init.o(i.main_loop)
    malloc                                   0x08004bf1   Thumb Code    92  malloc.o(i.malloc)
    on_cad_done_detected                     0x08004c5d   Thumb Code    32  apps_common.o(i.on_cad_done_detected)
    on_cad_done_undetected                   0x08004cad   Thumb Code    32  apps_common.o(i.on_cad_done_undetected)
    on_fsk_len_error                         0x08004cfd   Thumb Code    10  main_per.o(i.on_fsk_len_error)
    on_gnss_scan_done                        0x08004d0d   Thumb Code    32  apps_common.o(i.on_gnss_scan_done)
    on_header_error                          0x08004d5d   Thumb Code    32  apps_common.o(i.on_header_error)
    on_lora_rx_timestamp                     0x08004dad   Thumb Code    32  apps_common.o(i.on_lora_rx_timestamp)
    on_preamble_detected                     0x08004dfd   Thumb Code    32  apps_common.o(i.on_preamble_detected)
    on_rttof_exchange_valid                  0x08004e4d   Thumb Code    32  apps_common.o(i.on_rttof_exchange_valid)
    on_rttof_request_discarded               0x08004e9d   Thumb Code    32  apps_common.o(i.on_rttof_request_discarded)
    on_rttof_request_valid                   0x08004eed   Thumb Code    32  apps_common.o(i.on_rttof_request_valid)
    on_rttof_response_done                   0x08004f3d   Thumb Code    32  apps_common.o(i.on_rttof_response_done)
    on_rttof_timeout                         0x08004f8d   Thumb Code    32  apps_common.o(i.on_rttof_timeout)
    on_rx_crc_error                          0x08004fdd   Thumb Code    10  main_per.o(i.on_rx_crc_error)
    on_rx_done                               0x08004fed   Thumb Code   246  main_per.o(i.on_rx_done)
    on_rx_timeout                            0x080051bd   Thumb Code    10  main_per.o(i.on_rx_timeout)
    on_syncword_header_valid                 0x080051cd   Thumb Code    32  apps_common.o(i.on_syncword_header_valid)
    on_tx_done                               0x0800521d   Thumb Code   180  main_per.o(i.on_tx_done)
    on_wifi_scan_done                        0x08005359   Thumb Code    32  apps_common.o(i.on_wifi_scan_done)
    print_common_configuration               0x0800546d   Thumb Code   202  apps_common.o(i.print_common_configuration)
    print_lora_configuration                 0x080055ed   Thumb Code   396  apps_common.o(i.print_lora_configuration)
    radio_on_dio_irq                         0x080058d5   Thumb Code     8  apps_common.o(i.radio_on_dio_irq)
    smtc_hal_mcu_gpio_enable_irq             0x080058e1   Thumb Code   160  smtc_hal_mcu_gpio_stm32l4.o(i.smtc_hal_mcu_gpio_enable_irq)
    smtc_hal_mcu_gpio_get_state              0x0800598d   Thumb Code   138  smtc_hal_mcu_gpio_stm32l4.o(i.smtc_hal_mcu_gpio_get_state)
    smtc_hal_mcu_gpio_init_input             0x08005a19   Thumb Code   208  smtc_hal_mcu_gpio_stm32l4.o(i.smtc_hal_mcu_gpio_init_input)
    smtc_hal_mcu_gpio_init_output            0x08005aed   Thumb Code   126  smtc_hal_mcu_gpio_stm32l4.o(i.smtc_hal_mcu_gpio_init_output)
    smtc_hal_mcu_gpio_set_state              0x08005b71   Thumb Code    54  smtc_hal_mcu_gpio_stm32l4.o(i.smtc_hal_mcu_gpio_set_state)
    smtc_hal_mcu_init                        0x08005f85   Thumb Code   440  smtc_hal_mcu_stm32l4.o(i.smtc_hal_mcu_init)
    smtc_hal_mcu_spi_init                    0x08006155   Thumb Code   258  smtc_hal_mcu_spi_stm32l4.o(i.smtc_hal_mcu_spi_init)
    smtc_hal_mcu_spi_rw_buffer               0x0800626d   Thumb Code   138  smtc_hal_mcu_spi_stm32l4.o(i.smtc_hal_mcu_spi_rw_buffer)
    smtc_hal_mcu_uart_init                   0x08006341   Thumb Code   304  smtc_hal_mcu_uart_stm32l4.o(i.smtc_hal_mcu_uart_init)
    smtc_hal_mcu_uart_send                   0x08006485   Thumb Code    68  smtc_hal_mcu_uart_stm32l4.o(i.smtc_hal_mcu_uart_send)
    smtc_shield_lr1120mb1dis_get_lfclk_cfg   0x080064f1   Thumb Code     8  smtc_shield_lr1120mb1dis.o(i.smtc_shield_lr1120mb1dis_get_lfclk_cfg)
    smtc_shield_lr1120mb1dis_get_pa_pwr_cfg  0x080064f9   Thumb Code    16  smtc_shield_lr1120mb1dis.o(i.smtc_shield_lr1120mb1dis_get_pa_pwr_cfg)
    smtc_shield_lr1120mb1dis_get_pinout      0x08006509   Thumb Code     8  smtc_shield_lr1120mb1dis.o(i.smtc_shield_lr1120mb1dis_get_pinout)
    smtc_shield_lr1120mb1dis_get_reg_mode    0x08006511   Thumb Code     8  smtc_shield_lr1120mb1dis.o(i.smtc_shield_lr1120mb1dis_get_reg_mode)
    smtc_shield_lr1120mb1dis_get_rf_switch_cfg 0x08006519   Thumb Code     8  smtc_shield_lr1120mb1dis.o(i.smtc_shield_lr1120mb1dis_get_rf_switch_cfg)
    smtc_shield_lr1120mb1dis_get_rssi_calibration_table 0x08006521   Thumb Code    12  smtc_shield_lr1120mb1dis.o(i.smtc_shield_lr1120mb1dis_get_rssi_calibration_table)
    smtc_shield_lr1120mb1dis_get_xosc_cfg    0x0800652d   Thumb Code     8  smtc_shield_lr1120mb1dis.o(i.smtc_shield_lr1120mb1dis_get_xosc_cfg)
    smtc_shield_lr1120mb1dxs_common_get_pa_pwr_cfg 0x08006535   Thumb Code   102  smtc_shield_lr1120mb1dxs_common.o(i.smtc_shield_lr1120mb1dxs_common_get_pa_pwr_cfg)
    smtc_shield_lr11x0_common_get_xosc_cfg   0x080065bd   Thumb Code     4  smtc_shield_lr11x0_common.o(i.smtc_shield_lr11x0_common_get_xosc_cfg)
    smtc_shield_lr11x0_common_rttof_recommended_rx_tx_delay_indicator 0x080065c5   Thumb Code   162  smtc_shield_lr11x0_common.o(i.smtc_shield_lr11x0_common_rttof_recommended_rx_tx_delay_indicator)
    smtc_shield_lr11xx_common_get_lfclk_cfg  0x0800667d   Thumb Code     4  smtc_shield_lr11xx_common.o(i.smtc_shield_lr11xx_common_get_lfclk_cfg)
    smtc_shield_lr11xx_common_get_pinout     0x08006685   Thumb Code     4  smtc_shield_lr11xx_common.o(i.smtc_shield_lr11xx_common_get_pinout)
    smtc_shield_lr11xx_common_get_reg_mode   0x0800668d   Thumb Code     4  smtc_shield_lr11xx_common.o(i.smtc_shield_lr11xx_common_get_reg_mode)
    smtc_shield_lr11xx_common_get_rf_switch_cfg 0x08006691   Thumb Code     4  smtc_shield_lr11xx_common.o(i.smtc_shield_lr11xx_common_get_rf_switch_cfg)
    smtc_shield_lr11xx_get_rssi_calibration_table 0x080066b9   Thumb Code    32  smtc_shield_lr11xx_common.o(i.smtc_shield_lr11xx_get_rssi_calibration_table)
    smtc_shield_pinout_mapping_get_gpio_cfg  0x080066ed   Thumb Code    10  smtc_shield_pinout_mapping.o(i.smtc_shield_pinout_mapping_get_gpio_cfg)
    uart_init                                0x080066fd   Thumb Code   132  uart_init.o(i.uart_init)
    vprint                                   0x08006a15   Thumb Code    44  uart_init.o(i.vprint)
    arduino_mapping                          0x08006b1c   Data         176  smtc_shield_pinout_mapping.o(.constdata)
    AHBPrescTable                            0x08006c1c   Data          16  system_stm32l4xx.o(.constdata)
    APBPrescTable                            0x08006c2c   Data           8  system_stm32l4xx.o(.constdata)
    MSIRangeTable                            0x08006c34   Data          48  system_stm32l4xx.o(.constdata)
    smtc_shield_lr11xx_common_rf_switch_cfg  0x08006db0   Data           8  smtc_shield_lr11xx_common.o(.constdata)
    smtc_shield_lr11xx_common_lfclk_cfg      0x08006db8   Data           2  smtc_shield_lr11xx_common.o(.constdata)
    smtc_shield_lr11xx_common_pinout         0x08006dba   Data           8  smtc_shield_lr11xx_common.o(.constdata)
    smtc_shield_lr11x0_common_xosc_cfg       0x08006ee4   Data           8  smtc_shield_lr11x0_common.o(.constdata)
    smtc_shield_lr1120mb1dxs_common_pa_pwr_cfg_table 0x08006eec   Data         200  smtc_shield_lr1120mb1dxs_common.o(.constdata)
    smtc_shield_lr1120mb1dxs_common_pa_pwr_hf_cfg_table 0x08006fb4   Data         160  smtc_shield_lr1120mb1dxs_common.o(.constdata)
    Region$$Table$$Base                      0x08007180   Number         0  anon$$obj.o(Region$$Table)
    Region$$Table$$Limit                     0x080071a0   Number         0  anon$$obj.o(Region$$Table)
    shield                                   0x20000000   Data          32  apps_common.o(.data)
    rx_index                                 0x20000034   Data           2  uart_init.o(.data)
    at_command_received                      0x20000036   Data           1  uart_init.o(.data)
    rx_length                                0x20000038   Data           2  uart_init.o(.data)
    mode                                     0x20000050   Data           4  main_per.o(.data)
    SystemCoreClock                          0x20000078   Data           4  system_stm32l4xx.o(.data)
    __microlib_freelist                      0x2000007c   Data           4  mvars.o(.data)
    __microlib_freelist_initialised          0x20000080   Data           4  mvars.o(.data)
    rx_buffer                                0x200000fc   Data         256  uart_init.o(.bss)
    __heap_base                              0x20000558   Data           0  startup_stm32l476xx.o(HEAP)
    __heap_limit                             0x20000758   Data           0  startup_stm32l476xx.o(HEAP)
    __initial_sp                             0x20000b58   Data           0  startup_stm32l476xx.o(STACK)



==============================================================================

Memory Map of the image

  Image Entry point : 0x08000189

  Load Region LR_IROM1 (Base: 0x08000000, Size: 0x00007224, Max: 0x00100000, ABSOLUTE)

    Execution Region ER_IROM1 (Exec base: 0x08000000, Load base: 0x08000000, Size: 0x000071a0, Max: 0x00100000, ABSOLUTE)

    Exec Addr    Load Addr    Size         Type   Attr      Idx    E Section Name        Object

    0x08000000   0x08000000   0x00000188   Data   RO            3    RESET               startup_stm32l476xx.o
    0x08000188   0x08000188   0x00000000   Code   RO         4666  * .ARM.Collect$$$$00000000  mc_w.l(entry.o)
    0x08000188   0x08000188   0x00000004   Code   RO         4751    .ARM.Collect$$$$00000001  mc_w.l(entry2.o)
    0x0800018c   0x0800018c   0x00000004   Code   RO         4754    .ARM.Collect$$$$00000004  mc_w.l(entry5.o)
    0x08000190   0x08000190   0x00000000   Code   RO         4756    .ARM.Collect$$$$00000008  mc_w.l(entry7b.o)
    0x08000190   0x08000190   0x00000000   Code   RO         4758    .ARM.Collect$$$$0000000A  mc_w.l(entry8b.o)
    0x08000190   0x08000190   0x00000008   Code   RO         4759    .ARM.Collect$$$$0000000B  mc_w.l(entry9a.o)
    0x08000198   0x08000198   0x00000000   Code   RO         4761    .ARM.Collect$$$$0000000D  mc_w.l(entry10a.o)
    0x08000198   0x08000198   0x00000000   Code   RO         4763    .ARM.Collect$$$$0000000F  mc_w.l(entry11a.o)
    0x08000198   0x08000198   0x00000004   Code   RO         4752    .ARM.Collect$$$$00002712  mc_w.l(entry2.o)
    0x0800019c   0x0800019c   0x00000024   Code   RO            4    .text               startup_stm32l476xx.o
    0x080001c0   0x080001c0   0x00000024   Code   RO         4669    .text               mc_w.l(memcpya.o)
    0x080001e4   0x080001e4   0x00000024   Code   RO         4671    .text               mc_w.l(memseta.o)
    0x08000208   0x08000208   0x00000024   Code   RO         4673    .text               mc_w.l(strstr.o)
    0x0800022c   0x0800022c   0x00000018   Code   RO         4675    .text               mc_w.l(strncpy.o)
    0x08000244   0x08000244   0x0000000e   Code   RO         4677    .text               mc_w.l(strlen.o)
    0x08000252   0x08000252   0x0000001a   Code   RO         4679    .text               mc_w.l(memcmp.o)
    0x0800026c   0x0800026c   0x0000015e   Code   RO         4739    .text               mf_w.l(dadd.o)
    0x080003ca   0x080003ca   0x000000ea   Code   RO         4741    .text               mf_w.l(dmul.o)
    0x080004b4   0x080004b4   0x000000de   Code   RO         4743    .text               mf_w.l(ddiv.o)
    0x08000592   0x08000592   0x0000002c   Code   RO         4768    .text               mc_w.l(uidiv.o)
    0x080005be   0x080005be   0x00000068   Code   RO         4770    .text               mc_w.l(uldiv.o)
    0x08000626   0x08000626   0x0000001e   Code   RO         4772    .text               mc_w.l(llshl.o)
    0x08000644   0x08000644   0x00000024   Code   RO         4774    .text               mc_w.l(llsshr.o)
    0x08000668   0x08000668   0x00000000   Code   RO         4778    .text               mc_w.l(iusefp.o)
    0x08000668   0x08000668   0x000000ba   Code   RO         4781    .text               mf_w.l(depilogue.o)
    0x08000722   0x08000722   0x00000030   Code   RO         4783    .text               mf_w.l(dfixul.o)
    0x08000752   0x08000752   0x00000002   PAD
    0x08000754   0x08000754   0x00000030   Code   RO         4785    .text               mf_w.l(cdrcmple.o)
    0x08000784   0x08000784   0x00000024   Code   RO         4787    .text               mc_w.l(init.o)
    0x080007a8   0x080007a8   0x00000020   Code   RO         4790    .text               mc_w.l(llushr.o)
    0x080007c8   0x080007c8   0x00000180   Code   RO          630    i.ATC_IdleLine      uart_init.o
    0x08000948   0x08000948   0x00000158   Code   RO          848    i.ATC_Init          atc.o
    0x08000aa0   0x08000aa0   0x00000120   Code   RO          849    i.ATC_Loop          atc.o
    0x08000bc0   0x08000bc0   0x00000088   Code   RO          850    i.ATC_SetEvents     atc.o
    0x08000c48   0x08000c48   0x00000018   Code   RO         3425    i.EXTI0_IRQHandler  smtc_hal_mcu_gpio_stm32l4.o
    0x08000c60   0x08000c60   0x000000a0   Code   RO         3426    i.EXTI15_10_IRQHandler  smtc_hal_mcu_gpio_stm32l4.o
    0x08000d00   0x08000d00   0x00000018   Code   RO         3427    i.EXTI1_IRQHandler  smtc_hal_mcu_gpio_stm32l4.o
    0x08000d18   0x08000d18   0x00000018   Code   RO         3428    i.EXTI2_IRQHandler  smtc_hal_mcu_gpio_stm32l4.o
    0x08000d30   0x08000d30   0x00000018   Code   RO         3429    i.EXTI3_IRQHandler  smtc_hal_mcu_gpio_stm32l4.o
    0x08000d48   0x08000d48   0x00000018   Code   RO         3430    i.EXTI4_IRQHandler  smtc_hal_mcu_gpio_stm32l4.o
    0x08000d60   0x08000d60   0x00000074   Code   RO         3431    i.EXTI9_5_IRQHandler  smtc_hal_mcu_gpio_stm32l4.o
    0x08000dd4   0x08000dd4   0x0000001c   Code   RO         3433    i.LL_AHB2_GRP1_EnableClock  smtc_hal_mcu_gpio_stm32l4.o
    0x08000df0   0x08000df0   0x0000001c   Code   RO         3692    i.LL_AHB2_GRP1_EnableClock  smtc_hal_mcu_uart_stm32l4.o
    0x08000e0c   0x08000e0c   0x0000001c   Code   RO         3921    i.LL_AHB2_GRP1_EnableClock  smtc_hal_mcu_spi_stm32l4.o
    0x08000e28   0x08000e28   0x0000000c   Code   RO         3435    i.LL_EXTI_ClearFlag_0_31  smtc_hal_mcu_gpio_stm32l4.o
    0x08000e34   0x08000e34   0x00000010   Code   RO         1621    i.LL_EXTI_DisableEvent_0_31  stm32l4xx_ll_exti.o
    0x08000e44   0x08000e44   0x00000010   Code   RO         1622    i.LL_EXTI_DisableEvent_32_63  stm32l4xx_ll_exti.o
    0x08000e54   0x08000e54   0x00000010   Code   RO         1623    i.LL_EXTI_DisableIT_0_31  stm32l4xx_ll_exti.o
    0x08000e64   0x08000e64   0x00000010   Code   RO         1624    i.LL_EXTI_DisableIT_32_63  stm32l4xx_ll_exti.o
    0x08000e74   0x08000e74   0x00000010   Code   RO         1625    i.LL_EXTI_EnableEvent_0_31  stm32l4xx_ll_exti.o
    0x08000e84   0x08000e84   0x00000010   Code   RO         1626    i.LL_EXTI_EnableEvent_32_63  stm32l4xx_ll_exti.o
    0x08000e94   0x08000e94   0x00000010   Code   RO         1627    i.LL_EXTI_EnableFallingTrig_0_31  stm32l4xx_ll_exti.o
    0x08000ea4   0x08000ea4   0x00000010   Code   RO         1628    i.LL_EXTI_EnableFallingTrig_32_63  stm32l4xx_ll_exti.o
    0x08000eb4   0x08000eb4   0x00000010   Code   RO         1629    i.LL_EXTI_EnableIT_0_31  stm32l4xx_ll_exti.o
    0x08000ec4   0x08000ec4   0x00000010   Code   RO         1630    i.LL_EXTI_EnableIT_32_63  stm32l4xx_ll_exti.o
    0x08000ed4   0x08000ed4   0x00000010   Code   RO         1631    i.LL_EXTI_EnableRisingTrig_0_31  stm32l4xx_ll_exti.o
    0x08000ee4   0x08000ee4   0x00000010   Code   RO         1632    i.LL_EXTI_EnableRisingTrig_32_63  stm32l4xx_ll_exti.o
    0x08000ef4   0x08000ef4   0x00000170   Code   RO         1633    i.LL_EXTI_Init      stm32l4xx_ll_exti.o
    0x08001064   0x08001064   0x00000018   Code   RO         3436    i.LL_EXTI_IsActiveFlag_0_31  smtc_hal_mcu_gpio_stm32l4.o
    0x0800107c   0x0800107c   0x0000012e   Code   RO         1541    i.LL_GPIO_Init      stm32l4xx_ll_gpio.o
    0x080011aa   0x080011aa   0x0000001c   Code   RO         1719    i.LL_Init1msTick    stm32l4xx_ll_utils.o
    0x080011c6   0x080011c6   0x00000002   PAD
    0x080011c8   0x080011c8   0x000000cc   Code   RO         1262    i.LL_RCC_GetUARTClockFreq  stm32l4xx_ll_rcc.o
    0x08001294   0x08001294   0x00000014   Code   RO         1263    i.LL_RCC_GetUARTClockSource  stm32l4xx_ll_rcc.o
    0x080012a8   0x080012a8   0x0000011c   Code   RO         1264    i.LL_RCC_GetUSARTClockFreq  stm32l4xx_ll_rcc.o
    0x080013c4   0x080013c4   0x00000014   Code   RO         1265    i.LL_RCC_GetUSARTClockSource  stm32l4xx_ll_rcc.o
    0x080013d8   0x080013d8   0x00000010   Code   RO         1267    i.LL_RCC_HSI_IsReady  stm32l4xx_ll_rcc.o
    0x080013e8   0x080013e8   0x00000010   Code   RO         1268    i.LL_RCC_LSE_IsReady  stm32l4xx_ll_rcc.o
    0x080013f8   0x080013f8   0x00000010   Code   RO         1270    i.LL_RCC_MSI_GetRange  stm32l4xx_ll_rcc.o
    0x08001408   0x08001408   0x00000010   Code   RO         1271    i.LL_RCC_MSI_GetRangeAfterStandby  stm32l4xx_ll_rcc.o
    0x08001418   0x08001418   0x00000010   Code   RO         1272    i.LL_RCC_MSI_IsEnabledRangeSelect  stm32l4xx_ll_rcc.o
    0x08001428   0x08001428   0x00000010   Code   RO         1281    i.LL_RCC_PLL_GetDivider  stm32l4xx_ll_rcc.o
    0x08001438   0x08001438   0x00000010   Code   RO         1282    i.LL_RCC_PLL_GetMainSource  stm32l4xx_ll_rcc.o
    0x08001448   0x08001448   0x00000010   Code   RO         1283    i.LL_RCC_PLL_GetN   stm32l4xx_ll_rcc.o
    0x08001458   0x08001458   0x0000007e   Code   RO          890    i.LL_SPI_Init       stm32l4xx_ll_spi.o
    0x080014d6   0x080014d6   0x00000002   PAD
    0x080014d8   0x080014d8   0x0000000c   Code   RO         1730    i.LL_SetSystemCoreClock  stm32l4xx_ll_utils.o
    0x080014e4   0x080014e4   0x00000108   Code   RO         1184    i.LL_USART_Init     stm32l4xx_ll_usart.o
    0x080015ec   0x080015ec   0x0000000a   Code   RO         3693    i.LL_USART_IsActiveFlag_RXNE  smtc_hal_mcu_uart_stm32l4.o
    0x080015f6   0x080015f6   0x0000000a   Code   RO         1185    i.LL_USART_IsEnabled  stm32l4xx_ll_usart.o
    0x08001600   0x08001600   0x0000000a   Code   RO         3694    i.LL_USART_IsEnabled  smtc_hal_mcu_uart_stm32l4.o
    0x0800160a   0x0800160a   0x0000002c   Code   RO         1731    i.LL_mDelay         stm32l4xx_ll_utils.o
    0x08001636   0x08001636   0x00000002   PAD
    0x08001638   0x08001638   0x00000058   Code   RO         3789    i.LPTIM1_IRQHandler  smtc_hal_mcu_timer_stm32l4.o
    0x08001690   0x08001690   0x00000020   Code   RO         1287    i.RCC_GetHCLKClockFreq  stm32l4xx_ll_rcc.o
    0x080016b0   0x080016b0   0x00000024   Code   RO         1288    i.RCC_GetPCLK1ClockFreq  stm32l4xx_ll_rcc.o
    0x080016d4   0x080016d4   0x00000024   Code   RO         1289    i.RCC_GetPCLK2ClockFreq  stm32l4xx_ll_rcc.o
    0x080016f8   0x080016f8   0x000000bc   Code   RO         1290    i.RCC_GetSystemClockFreq  stm32l4xx_ll_rcc.o
    0x080017b4   0x080017b4   0x000000d4   Code   RO         1298    i.RCC_PLL_GetFreqDomain_SYS  stm32l4xx_ll_rcc.o
    0x08001888   0x08001888   0x00000014   Code   RO         1837    i.SystemInit        system_stm32l4xx.o
    0x0800189c   0x0800189c   0x0000006c   Code   RO         3696    i.USART2_IRQHandler  smtc_hal_mcu_uart_stm32l4.o
    0x08001908   0x08001908   0x00000024   Code   RO         4690    i.__0vsprintf       mc_w.l(printfa.o)
    0x0800192c   0x0800192c   0x0000000e   Code   RO         4795    i.__scatterload_copy  mc_w.l(handlers.o)
    0x0800193a   0x0800193a   0x00000002   Code   RO         4796    i.__scatterload_null  mc_w.l(handlers.o)
    0x0800193c   0x0800193c   0x0000000e   Code   RO         4797    i.__scatterload_zeroinit  mc_w.l(handlers.o)
    0x0800194a   0x0800194a   0x00000002   PAD
    0x0800194c   0x0800194c   0x0000018a   Code   RO         4691    i._fp_digits        mc_w.l(printfa.o)
    0x08001ad6   0x08001ad6   0x00000002   PAD
    0x08001ad8   0x08001ad8   0x000006e2   Code   RO         4692    i._printf_core      mc_w.l(printfa.o)
    0x080021ba   0x080021ba   0x00000024   Code   RO         4693    i._printf_post_padding  mc_w.l(printfa.o)
    0x080021de   0x080021de   0x0000002e   Code   RO         4694    i._printf_pre_padding  mc_w.l(printfa.o)
    0x0800220c   0x0800220c   0x0000000a   Code   RO         4696    i._sputc            mc_w.l(printfa.o)
    0x08002216   0x08002216   0x0000007a   Code   RO           13    i.apps_common_compute_lora_ldro  apps_common.o
    0x08002290   0x08002290   0x00000014   Code   RO           14    i.apps_common_lr11xx_fetch_and_print_version  apps_common.o
    0x080022a4   0x080022a4   0x000000b0   Code   RO           15    i.apps_common_lr11xx_fetch_version  apps_common.o
    0x08002354   0x08002354   0x000000c0   Code   RO           16    i.apps_common_lr11xx_get_context  apps_common.o
    0x08002414   0x08002414   0x00000020   Code   RO           18    i.apps_common_lr11xx_handle_post_rx  apps_common.o
    0x08002434   0x08002434   0x00000020   Code   RO           19    i.apps_common_lr11xx_handle_post_tx  apps_common.o
    0x08002454   0x08002454   0x00000020   Code   RO           22    i.apps_common_lr11xx_handle_pre_rx  apps_common.o
    0x08002474   0x08002474   0x00000020   Code   RO           23    i.apps_common_lr11xx_handle_pre_tx  apps_common.o
    0x08002494   0x08002494   0x00000598   Code   RO           25    i.apps_common_lr11xx_irq_process  apps_common.o
    0x08002a2c   0x08002a2c   0x00000208   Code   RO           26    i.apps_common_lr11xx_print_version  apps_common.o
    0x08002c34   0x08002c34   0x0000033c   Code   RO           28    i.apps_common_lr11xx_radio_init  apps_common.o
    0x08002f70   0x08002f70   0x000001d8   Code   RO           30    i.apps_common_lr11xx_receive  apps_common.o
    0x08003148   0x08003148   0x00000322   Code   RO           31    i.apps_common_lr11xx_system_init  apps_common.o
    0x0800346a   0x0800346a   0x00000002   PAD
    0x0800346c   0x0800346c   0x000000e8   Code   RO           33    i.apps_common_shield_init  apps_common.o
    0x08003554   0x08003554   0x00000090   Code   RO          631    i.atc_per_event_callback  uart_init.o
    0x080035e4   0x080035e4   0x00000050   Code   RO         4711    i.free              mc_w.l(malloc.o)
    0x08003634   0x08003634   0x00000034   Code   RO           34    i.get_time_on_air_in_ms  apps_common.o
    0x08003668   0x08003668   0x0000001a   Code   RO          553    i.hal_mcu_trace_print  smtc_hal_dbg_trace.o
    0x08003682   0x08003682   0x00000034   Code   RO         3988    i.lr11xx_hal_direct_read  lr11xx_hal.o
    0x080036b6   0x080036b6   0x00000074   Code   RO         3989    i.lr11xx_hal_read   lr11xx_hal.o
    0x0800372a   0x0800372a   0x00000020   Code   RO         3990    i.lr11xx_hal_reset  lr11xx_hal.o
    0x0800374a   0x0800374a   0x0000001a   Code   RO         3991    i.lr11xx_hal_wait_on_busy  lr11xx_hal.o
    0x08003764   0x08003764   0x00000046   Code   RO         3993    i.lr11xx_hal_write  lr11xx_hal.o
    0x080037aa   0x080037aa   0x00000002   PAD
    0x080037ac   0x080037ac   0x00000018   Code   RO         2476    i.lr11xx_radio_apply_high_acp_workaround  lr11xx_radio.o
    0x080037c4   0x080037c4   0x00000028   Code   RO         2480    i.lr11xx_radio_cfg_rx_boosted  lr11xx_radio.o
    0x080037ec   0x080037ec   0x0000000e   Code   RO         2482    i.lr11xx_radio_convert_time_in_ms_to_rtc_step  lr11xx_radio.o
    0x080037fa   0x080037fa   0x00000002   PAD
    0x080037fc   0x080037fc   0x00000088   Code   RO         4373    i.lr11xx_radio_fallback_modes_to_str  lr11xx_radio_types_str.o
    0x08003884   0x08003884   0x00000020   Code   RO         2486    i.lr11xx_radio_get_gfsk_time_on_air_in_ms  lr11xx_radio.o
    0x080038a4   0x080038a4   0x0000006a   Code   RO         2487    i.lr11xx_radio_get_gfsk_time_on_air_numerator  lr11xx_radio.o
    0x0800390e   0x0800390e   0x00000002   PAD
    0x08003910   0x08003910   0x00000074   Code   RO         2488    i.lr11xx_radio_get_lora_bw_in_hz  lr11xx_radio.o
    0x08003984   0x08003984   0x00000050   Code   RO         2489    i.lr11xx_radio_get_lora_pkt_status  lr11xx_radio.o
    0x080039d4   0x080039d4   0x00000028   Code   RO         2492    i.lr11xx_radio_get_lora_time_on_air_in_ms  lr11xx_radio.o
    0x080039fc   0x080039fc   0x000001ba   Code   RO         2493    i.lr11xx_radio_get_lora_time_on_air_numerator  lr11xx_radio.o
    0x08003bb6   0x08003bb6   0x00000002   PAD
    0x08003bb8   0x08003bb8   0x00000038   Code   RO         2496    i.lr11xx_radio_get_rx_buffer_status  lr11xx_radio.o
    0x08003bf0   0x08003bf0   0x00000190   Code   RO         4382    i.lr11xx_radio_lora_bw_to_str  lr11xx_radio_types_str.o
    0x08003d80   0x08003d80   0x0000011c   Code   RO         4383    i.lr11xx_radio_lora_cr_to_str  lr11xx_radio_types_str.o
    0x08003e9c   0x08003e9c   0x00000058   Code   RO         4384    i.lr11xx_radio_lora_crc_to_str  lr11xx_radio_types_str.o
    0x08003ef4   0x08003ef4   0x00000060   Code   RO         4385    i.lr11xx_radio_lora_iq_to_str  lr11xx_radio_types_str.o
    0x08003f54   0x08003f54   0x00000060   Code   RO         4387    i.lr11xx_radio_lora_pkt_len_modes_to_str  lr11xx_radio_types_str.o
    0x08003fb4   0x08003fb4   0x00000100   Code   RO         4388    i.lr11xx_radio_lora_sf_to_str  lr11xx_radio_types_str.o
    0x080040b4   0x080040b4   0x000000dc   Code   RO         4393    i.lr11xx_radio_pkt_type_to_str  lr11xx_radio_types_str.o
    0x08004190   0x08004190   0x00000018   Code   RO         2507    i.lr11xx_radio_set_lna_mode  lr11xx_radio.o
    0x080041a8   0x080041a8   0x00000040   Code   RO         2508    i.lr11xx_radio_set_lora_mod_params  lr11xx_radio.o
    0x080041e8   0x080041e8   0x00000050   Code   RO         2509    i.lr11xx_radio_set_lora_pkt_params  lr11xx_radio.o
    0x08004238   0x08004238   0x00000028   Code   RO         2513    i.lr11xx_radio_set_lora_sync_word  lr11xx_radio.o
    0x08004260   0x08004260   0x00000040   Code   RO         2516    i.lr11xx_radio_set_pa_cfg  lr11xx_radio.o
    0x080042a0   0x080042a0   0x00000028   Code   RO         2518    i.lr11xx_radio_set_pkt_type  lr11xx_radio.o
    0x080042c8   0x080042c8   0x00000040   Code   RO         2519    i.lr11xx_radio_set_rf_freq  lr11xx_radio.o
    0x08004308   0x08004308   0x000000d0   Code   RO         2520    i.lr11xx_radio_set_rssi_calibration  lr11xx_radio.o
    0x080043d8   0x080043d8   0x00000018   Code   RO         2521    i.lr11xx_radio_set_rx  lr11xx_radio.o
    0x080043f0   0x080043f0   0x00000028   Code   RO         2525    i.lr11xx_radio_set_rx_tx_fallback_mode  lr11xx_radio.o
    0x08004418   0x08004418   0x00000012   Code   RO         2526    i.lr11xx_radio_set_rx_with_timeout_in_rtc_step  lr11xx_radio.o
    0x0800442a   0x0800442a   0x00000002   PAD
    0x0800442c   0x0800442c   0x00000070   Code   RO         2527    i.lr11xx_radio_set_rx_with_timeout_in_rtc_step_and_lna_mode  lr11xx_radio.o
    0x0800449c   0x0800449c   0x00000018   Code   RO         2528    i.lr11xx_radio_set_tx  lr11xx_radio.o
    0x080044b4   0x080044b4   0x00000030   Code   RO         2531    i.lr11xx_radio_set_tx_params  lr11xx_radio.o
    0x080044e4   0x080044e4   0x00000058   Code   RO         2532    i.lr11xx_radio_set_tx_with_timeout_in_rtc_step  lr11xx_radio.o
    0x0800453c   0x0800453c   0x00000016   Code   RO         2917    i.lr11xx_regmem_fill_cbuffer_opcode_address  lr11xx_regmem.o
    0x08004552   0x08004552   0x00000002   PAD
    0x08004554   0x08004554   0x00000030   Code   RO         2921    i.lr11xx_regmem_read_buffer8  lr11xx_regmem.o
    0x08004584   0x08004584   0x00000024   Code   RO         2924    i.lr11xx_regmem_write_buffer8  lr11xx_regmem.o
    0x080045a8   0x080045a8   0x0000005c   Code   RO         2927    i.lr11xx_regmem_write_regmem32_mask  lr11xx_regmem.o
    0x08004604   0x08004604   0x00000028   Code   RO         2995    i.lr11xx_system_calibrate  lr11xx_system.o
    0x0800462c   0x0800462c   0x0000002c   Code   RO         2998    i.lr11xx_system_cfg_lfclk  lr11xx_system.o
    0x08004658   0x08004658   0x00000020   Code   RO         2999    i.lr11xx_system_clear_errors  lr11xx_system.o
    0x08004678   0x08004678   0x00000040   Code   RO         3000    i.lr11xx_system_clear_irq_status  lr11xx_system.o
    0x080046b8   0x080046b8   0x0000000e   Code   RO         3002    i.lr11xx_system_convert_stat1_byte_to_enum  lr11xx_system.o
    0x080046c6   0x080046c6   0x00000014   Code   RO         3003    i.lr11xx_system_convert_stat2_byte_to_enum  lr11xx_system.o
    0x080046da   0x080046da   0x00000036   Code   RO         3007    i.lr11xx_system_get_and_clear_irq_status  lr11xx_system.o
    0x08004710   0x08004710   0x0000003c   Code   RO         3008    i.lr11xx_system_get_errors  lr11xx_system.o
    0x0800474c   0x0800474c   0x0000005a   Code   RO         3010    i.lr11xx_system_get_status  lr11xx_system.o
    0x080047a6   0x080047a6   0x00000002   PAD
    0x080047a8   0x080047a8   0x00000048   Code   RO         3013    i.lr11xx_system_get_version  lr11xx_system.o
    0x080047f0   0x080047f0   0x0000000c   Code   RO         3020    i.lr11xx_system_reset  lr11xx_system.o
    0x080047fc   0x080047fc   0x00000060   Code   RO         3021    i.lr11xx_system_set_dio_as_rf_switch  lr11xx_system.o
    0x0800485c   0x0800485c   0x00000060   Code   RO         3022    i.lr11xx_system_set_dio_irq_params  lr11xx_system.o
    0x080048bc   0x080048bc   0x00000028   Code   RO         3024    i.lr11xx_system_set_reg_mode  lr11xx_system.o
    0x080048e4   0x080048e4   0x00000040   Code   RO         3027    i.lr11xx_system_set_tcxo_mode  lr11xx_system.o
    0x08004924   0x08004924   0x0000028c   Code   RO          709    i.main              main_per.o
    0x08004bb0   0x08004bb0   0x00000040   Code   RO          632    i.main_loop         uart_init.o
    0x08004bf0   0x08004bf0   0x0000006c   Code   RO         4712    i.malloc            mc_w.l(malloc.o)
    0x08004c5c   0x08004c5c   0x00000050   Code   RO           35    i.on_cad_done_detected  apps_common.o
    0x08004cac   0x08004cac   0x00000050   Code   RO           36    i.on_cad_done_undetected  apps_common.o
    0x08004cfc   0x08004cfc   0x00000010   Code   RO          710    i.on_fsk_len_error  main_per.o
    0x08004d0c   0x08004d0c   0x00000050   Code   RO           38    i.on_gnss_scan_done  apps_common.o
    0x08004d5c   0x08004d5c   0x00000050   Code   RO           39    i.on_header_error   apps_common.o
    0x08004dac   0x08004dac   0x00000050   Code   RO           40    i.on_lora_rx_timestamp  apps_common.o
    0x08004dfc   0x08004dfc   0x00000050   Code   RO           41    i.on_preamble_detected  apps_common.o
    0x08004e4c   0x08004e4c   0x00000050   Code   RO           42    i.on_rttof_exchange_valid  apps_common.o
    0x08004e9c   0x08004e9c   0x00000050   Code   RO           43    i.on_rttof_request_discarded  apps_common.o
    0x08004eec   0x08004eec   0x00000050   Code   RO           44    i.on_rttof_request_valid  apps_common.o
    0x08004f3c   0x08004f3c   0x00000050   Code   RO           45    i.on_rttof_response_done  apps_common.o
    0x08004f8c   0x08004f8c   0x00000050   Code   RO           46    i.on_rttof_timeout  apps_common.o
    0x08004fdc   0x08004fdc   0x00000010   Code   RO          711    i.on_rx_crc_error   main_per.o
    0x08004fec   0x08004fec   0x000001d0   Code   RO          712    i.on_rx_done        main_per.o
    0x080051bc   0x080051bc   0x00000010   Code   RO          713    i.on_rx_timeout     main_per.o
    0x080051cc   0x080051cc   0x00000050   Code   RO           50    i.on_syncword_header_valid  apps_common.o
    0x0800521c   0x0800521c   0x0000013c   Code   RO          714    i.on_tx_done        main_per.o
    0x08005358   0x08005358   0x00000050   Code   RO           52    i.on_wifi_scan_done  apps_common.o
    0x080053a8   0x080053a8   0x000000c4   Code   RO          715    i.per_reception_failure_handling  main_per.o
    0x0800546c   0x0800546c   0x00000180   Code   RO           53    i.print_common_configuration  apps_common.o
    0x080055ec   0x080055ec   0x000002e8   Code   RO           56    i.print_lora_configuration  apps_common.o
    0x080058d4   0x080058d4   0x0000000c   Code   RO           57    i.radio_on_dio_irq  apps_common.o
    0x080058e0   0x080058e0   0x000000ac   Code   RO         3439    i.smtc_hal_mcu_gpio_enable_irq  smtc_hal_mcu_gpio_stm32l4.o
    0x0800598c   0x0800598c   0x0000008a   Code   RO         3440    i.smtc_hal_mcu_gpio_get_state  smtc_hal_mcu_gpio_stm32l4.o
    0x08005a16   0x08005a16   0x00000002   PAD
    0x08005a18   0x08005a18   0x000000d4   Code   RO         3441    i.smtc_hal_mcu_gpio_init_input  smtc_hal_mcu_gpio_stm32l4.o
    0x08005aec   0x08005aec   0x00000084   Code   RO         3442    i.smtc_hal_mcu_gpio_init_output  smtc_hal_mcu_gpio_stm32l4.o
    0x08005b70   0x08005b70   0x00000036   Code   RO         3443    i.smtc_hal_mcu_gpio_set_state  smtc_hal_mcu_gpio_stm32l4.o
    0x08005ba6   0x08005ba6   0x00000002   PAD
    0x08005ba8   0x08005ba8   0x0000005c   Code   RO         3444    i.smtc_hal_mcu_gpio_stm32l4_call_exti_callback  smtc_hal_mcu_gpio_stm32l4.o
    0x08005c04   0x08005c04   0x00000098   Code   RO         3446    i.smtc_hal_mcu_gpio_stm32l4_enable_clock  smtc_hal_mcu_gpio_stm32l4.o
    0x08005c9c   0x08005c9c   0x00000214   Code   RO         3447    i.smtc_hal_mcu_gpio_stm32l4_get_exti_cfg  smtc_hal_mcu_gpio_stm32l4.o
    0x08005eb0   0x08005eb0   0x0000002c   Code   RO         3448    i.smtc_hal_mcu_gpio_stm32l4_get_free_slot  smtc_hal_mcu_gpio_stm32l4.o
    0x08005edc   0x08005edc   0x00000034   Code   RO         3449    i.smtc_hal_mcu_gpio_stm32l4_get_trigger  smtc_hal_mcu_gpio_stm32l4.o
    0x08005f10   0x08005f10   0x0000004c   Code   RO         3451    i.smtc_hal_mcu_gpio_stm32l4_is_configured  smtc_hal_mcu_gpio_stm32l4.o
    0x08005f5c   0x08005f5c   0x00000028   Code   RO         3452    i.smtc_hal_mcu_gpio_stm32l4_is_real_inst  smtc_hal_mcu_gpio_stm32l4.o
    0x08005f84   0x08005f84   0x000001d0   Code   RO         3888    i.smtc_hal_mcu_init  smtc_hal_mcu_stm32l4.o
    0x08006154   0x08006154   0x00000118   Code   RO         3923    i.smtc_hal_mcu_spi_init  smtc_hal_mcu_spi_stm32l4.o
    0x0800626c   0x0800626c   0x0000008a   Code   RO         3924    i.smtc_hal_mcu_spi_rw_buffer  smtc_hal_mcu_spi_stm32l4.o
    0x080062f6   0x080062f6   0x00000002   PAD
    0x080062f8   0x080062f8   0x00000024   Code   RO         3925    i.smtc_hal_mcu_spi_stm32l4_get_free_slot  smtc_hal_mcu_spi_stm32l4.o
    0x0800631c   0x0800631c   0x00000024   Code   RO         3926    i.smtc_hal_mcu_spi_stm32l4_is_real_inst  smtc_hal_mcu_spi_stm32l4.o
    0x08006340   0x08006340   0x00000144   Code   RO         3698    i.smtc_hal_mcu_uart_init  smtc_hal_mcu_uart_stm32l4.o
    0x08006484   0x08006484   0x00000044   Code   RO         3700    i.smtc_hal_mcu_uart_send  smtc_hal_mcu_uart_stm32l4.o
    0x080064c8   0x080064c8   0x00000028   Code   RO         3701    i.smtc_hal_mcu_uart_stm32l4_get_free_slot  smtc_hal_mcu_uart_stm32l4.o
    0x080064f0   0x080064f0   0x00000008   Code   RO         4134    i.smtc_shield_lr1120mb1dis_get_lfclk_cfg  smtc_shield_lr1120mb1dis.o
    0x080064f8   0x080064f8   0x00000010   Code   RO         4135    i.smtc_shield_lr1120mb1dis_get_pa_pwr_cfg  smtc_shield_lr1120mb1dis.o
    0x08006508   0x08006508   0x00000008   Code   RO         4136    i.smtc_shield_lr1120mb1dis_get_pinout  smtc_shield_lr1120mb1dis.o
    0x08006510   0x08006510   0x00000008   Code   RO         4137    i.smtc_shield_lr1120mb1dis_get_reg_mode  smtc_shield_lr1120mb1dis.o
    0x08006518   0x08006518   0x00000008   Code   RO         4138    i.smtc_shield_lr1120mb1dis_get_rf_switch_cfg  smtc_shield_lr1120mb1dis.o
    0x08006520   0x08006520   0x0000000c   Code   RO         4139    i.smtc_shield_lr1120mb1dis_get_rssi_calibration_table  smtc_shield_lr1120mb1dis.o
    0x0800652c   0x0800652c   0x00000008   Code   RO         4140    i.smtc_shield_lr1120mb1dis_get_xosc_cfg  smtc_shield_lr1120mb1dis.o
    0x08006534   0x08006534   0x00000088   Code   RO         4119    i.smtc_shield_lr1120mb1dxs_common_get_pa_pwr_cfg  smtc_shield_lr1120mb1dxs_common.o
    0x080065bc   0x080065bc   0x00000008   Code   RO         4092    i.smtc_shield_lr11x0_common_get_xosc_cfg  smtc_shield_lr11x0_common.o
    0x080065c4   0x080065c4   0x000000b8   Code   RO         4094    i.smtc_shield_lr11x0_common_rttof_recommended_rx_tx_delay_indicator  smtc_shield_lr11x0_common.o
    0x0800667c   0x0800667c   0x00000008   Code   RO         4050    i.smtc_shield_lr11xx_common_get_lfclk_cfg  smtc_shield_lr11xx_common.o
    0x08006684   0x08006684   0x00000008   Code   RO         4051    i.smtc_shield_lr11xx_common_get_pinout  smtc_shield_lr11xx_common.o
    0x0800668c   0x0800668c   0x00000004   Code   RO         4052    i.smtc_shield_lr11xx_common_get_reg_mode  smtc_shield_lr11xx_common.o
    0x08006690   0x08006690   0x00000008   Code   RO         4053    i.smtc_shield_lr11xx_common_get_rf_switch_cfg  smtc_shield_lr11xx_common.o
    0x08006698   0x08006698   0x00000012   Code   RO           58    i.smtc_shield_lr11xx_get_pa_pwr_cfg  apps_common.o
    0x080066aa   0x080066aa   0x0000000e   Code   RO           59    i.smtc_shield_lr11xx_get_rssi_calibration_table  apps_common.o
    0x080066b8   0x080066b8   0x00000034   Code   RO         4054    i.smtc_shield_lr11xx_get_rssi_calibration_table  smtc_shield_lr11xx_common.o
    0x080066ec   0x080066ec   0x00000010   Code   RO          584    i.smtc_shield_pinout_mapping_get_gpio_cfg  smtc_shield_pinout_mapping.o
    0x080066fc   0x080066fc   0x0000013c   Code   RO          633    i.uart_init         uart_init.o
    0x08006838   0x08006838   0x000000f8   Code   RO          634    i.uart_init_base    uart_init.o
    0x08006930   0x08006930   0x000000e4   Code   RO          635    i.uart_rx_callback  uart_init.o
    0x08006a14   0x08006a14   0x00000030   Code   RO          636    i.vprint            uart_init.o
    0x08006a44   0x08006a44   0x000000d6   Data   RO           61    .constdata          apps_common.o
    0x08006b1a   0x08006b1a   0x00000002   PAD
    0x08006b1c   0x08006b1c   0x000000b0   Data   RO          585    .constdata          smtc_shield_pinout_mapping.o
    0x08006bcc   0x08006bcc   0x0000000c   Data   RO          638    .constdata          uart_init.o
    0x08006bd8   0x08006bd8   0x00000042   Data   RO          716    .constdata          main_per.o
    0x08006c1a   0x08006c1a   0x00000002   PAD
    0x08006c1c   0x08006c1c   0x00000048   Data   RO         1838    .constdata          system_stm32l4xx.o
    0x08006c64   0x08006c64   0x00000054   Data   RO         3454    .constdata          smtc_hal_mcu_gpio_stm32l4.o
    0x08006cb8   0x08006cb8   0x0000004c   Data   RO         3704    .constdata          smtc_hal_mcu_uart_stm32l4.o
    0x08006d04   0x08006d04   0x00000070   Data   RO         3928    .constdata          smtc_hal_mcu_spi_stm32l4.o
    0x08006d74   0x08006d74   0x0000004e   Data   RO         4055    .constdata          smtc_shield_lr11xx_common.o
    0x08006dc2   0x08006dc2   0x00000002   PAD
    0x08006dc4   0x08006dc4   0x00000128   Data   RO         4095    .constdata          smtc_shield_lr11x0_common.o
    0x08006eec   0x08006eec   0x00000168   Data   RO         4120    .constdata          smtc_shield_lr1120mb1dxs_common.o
    0x08007054   0x08007054   0x000000d4   Data   RO           62    .conststring        apps_common.o
    0x08007128   0x08007128   0x0000004b   Data   RO          639    .conststring        uart_init.o
    0x08007173   0x08007173   0x00000001   PAD
    0x08007174   0x08007174   0x00000009   Data   RO          717    .conststring        main_per.o
    0x0800717d   0x0800717d   0x00000003   PAD
    0x08007180   0x08007180   0x00000020   Data   RO         4793    Region$$Table       anon$$obj.o


    Execution Region RW_IRAM1 (Exec base: 0x20000000, Load base: 0x080071a0, Size: 0x00000b58, Max: 0x00018000, ABSOLUTE)

    Exec Addr    Load Addr    Size         Type   Attr      Idx    E Section Name        Object

    0x20000000   0x080071a0   0x00000034   Data   RW           63    .data               apps_common.o
    0x20000034   0x080071d4   0x0000001c   Data   RW          640    .data               uart_init.o
    0x20000050   0x080071f0   0x00000028   Data   RW          718    .data               main_per.o
    0x20000078   0x08007218   0x00000004   Data   RW         1839    .data               system_stm32l4xx.o
    0x2000007c   0x0800721c   0x00000004   Data   RW         4776    .data               mc_w.l(mvars.o)
    0x20000080   0x08007220   0x00000004   Data   RW         4777    .data               mc_w.l(mvars.o)
    0x20000084        -       0x00000078   Zero   RW           60    .bss                apps_common.o
    0x200000fc        -       0x00000120   Zero   RW          637    .bss                uart_init.o
    0x2000021c        -       0x00000300   Zero   RW         3453    .bss                smtc_hal_mcu_gpio_stm32l4.o
    0x2000051c        -       0x0000000c   Zero   RW         3703    .bss                smtc_hal_mcu_uart_stm32l4.o
    0x20000528        -       0x00000010   Zero   RW         3798    .bss                smtc_hal_mcu_timer_stm32l4.o
    0x20000538        -       0x00000020   Zero   RW         3927    .bss                smtc_hal_mcu_spi_stm32l4.o
    0x20000558        -       0x00000200   Zero   RW            2    HEAP                startup_stm32l476xx.o
    0x20000758        -       0x00000400   Zero   RW            1    STACK               startup_stm32l476xx.o


==============================================================================

Image component sizes


      Code (inc. data)   RO Data    RW Data    ZI Data      Debug   Object Name

      7188       2610        426         52        120     737950   apps_common.o
       768        324          0          0          0       3402   atc.o
         0          0          0          0          0        440   lr11xx_bootloader.o
         0          0          0          0          0       4728   lr11xx_gnss.o
       296          0          0          0          0       6207   lr11xx_hal.o
         0          0          0          0          0       8364   lr11xx_lr_fhss.o
      1888        164          0          0          0      25024   lr11xx_radio.o
      1576       1284          0          0          0       6092   lr11xx_radio_types_str.o
       198         10          0          0          0       4411   lr11xx_regmem.o
       798         74          0          0          0      15134   lr11xx_system.o
      1676        748         75         40          0     672373   main_per.o
        26          0          0          0          0       1874   smtc_hal_dbg_trace.o
      2156        132         84          0        768      76052   smtc_hal_mcu_gpio_stm32l4.o
       518         38        112          0         32      21133   smtc_hal_mcu_spi_stm32l4.o
       464         24          0          0          0      41904   smtc_hal_mcu_stm32l4.o
        88          8          0          0         16      11708   smtc_hal_mcu_timer_stm32l4.o
       588         38         76          0         12      63449   smtc_hal_mcu_uart_stm32l4.o
        68          0          0          0          0       5488   smtc_shield_lr1120mb1dis.o
       136         34        360          0          0       1924   smtc_shield_lr1120mb1dxs_common.o
       192         34        296          0          0       2866   smtc_shield_lr11x0_common.o
        80         32         78          0          0       4695   smtc_shield_lr11xx_common.o
        16          6        176          0          0       1640   smtc_shield_pinout_mapping.o
        36          8        392          0       1536       1088   startup_stm32l476xx.o
       560         54          0          0          0      14659   stm32l4xx_ll_exti.o
       302          0          0          0          0       8171   stm32l4xx_ll_gpio.o
      1160        140          0          0          0      38705   stm32l4xx_ll_rcc.o
       126          0          0          0          0      11886   stm32l4xx_ll_spi.o
       274         26          0          0          0      22848   stm32l4xx_ll_usart.o
        84          6          0          0          0      17765   stm32l4xx_ll_utils.o
        20          6         72          4          0       1857   system_stm32l4xx.o
      1432        702         87         28        288       7632   uart_init.o

    ----------------------------------------------------------------------
     22742       6502       2276        124       2772    1841469   Object Totals
         0          0         32          0          0          0   (incl. Generated)
        28          0         10          0          0          0   (incl. Padding)

    ----------------------------------------------------------------------

      Code (inc. data)   RO Data    RW Data    ZI Data      Debug   Library Member Name

         0          0          0          0          0          0   entry.o
         0          0          0          0          0          0   entry10a.o
         0          0          0          0          0          0   entry11a.o
         8          4          0          0          0          0   entry2.o
         4          0          0          0          0          0   entry5.o
         0          0          0          0          0          0   entry7b.o
         0          0          0          0          0          0   entry8b.o
         8          4          0          0          0          0   entry9a.o
        30          0          0          0          0          0   handlers.o
        36          8          0          0          0         68   init.o
         0          0          0          0          0          0   iusefp.o
        30          0          0          0          0         68   llshl.o
        36          0          0          0          0         68   llsshr.o
        32          0          0          0          0         68   llushr.o
       188         20          0          0          0        160   malloc.o
        26          0          0          0          0         80   memcmp.o
        36          0          0          0          0         68   memcpya.o
        36          0          0          0          0        108   memseta.o
         0          0          0          8          0          0   mvars.o
      2284         86          0          0          0        516   printfa.o
        14          0          0          0          0         68   strlen.o
        24          0          0          0          0         76   strncpy.o
        36          0          0          0          0         80   strstr.o
        44          0          0          0          0         80   uidiv.o
       104          0          0          0          0         92   uldiv.o
        48          0          0          0          0         68   cdrcmple.o
       350          0          0          0          0        148   dadd.o
       222          0          0          0          0        100   ddiv.o
       186          0          0          0          0        176   depilogue.o
        48          0          0          0          0         68   dfixul.o
       234          0          0          0          0         96   dmul.o

    ----------------------------------------------------------------------
      4070        122          0          8          0       2256   Library Totals
         6          0          0          0          0          0   (incl. Padding)

    ----------------------------------------------------------------------

      Code (inc. data)   RO Data    RW Data    ZI Data      Debug   Library Name

      2976        122          0          8          0       1600   mc_w.l
      1088          0          0          0          0        656   mf_w.l

    ----------------------------------------------------------------------
      4070        122          0          8          0       2256   Library Totals

    ----------------------------------------------------------------------

==============================================================================


      Code (inc. data)   RO Data    RW Data    ZI Data      Debug   

     26812       6624       2276        132       2772    1823433   Grand Totals
     26812       6624       2276        132       2772    1823433   ELF Image Totals
     26812       6624       2276        132          0          0   ROM Totals

==============================================================================

    Total RO  Size (Code + RO Data)                29088 (  28.41kB)
    Total RW  Size (RW Data + ZI Data)              2904 (   2.84kB)
    Total ROM Size (Code + RO Data + RW Data)      29220 (  28.54kB)

==============================================================================

